LX51 LINKER/LOCATER V4.66.41.0                                                          03/10/2021  14:40:17  PAGE 1


LX51 LINKER/LOCATER V4.66.41.0, INVOKED BY:
C:\KEIL_V5\C51\BIN\LX51.EXE STARTUP.obj, main.obj, EX_Init.obj, HAL_Button.obj, HAL_Battery.obj, HAL_Temperature.obj, De
>> vice.obj, DRV_ADC.obj, DRV_GPIO.obj, DRV_PWM.obj, DRV_Timer.obj, DRV_Uart.obj TO Teslin CLASSES (CODE (C:0X100), CONS
>> T (C:0X100))


CPU MODE:     8051 MODE
MEMORY MODEL: COMPACT WITH FLOATING POINT ARITHMETIC


INPUT MODULES INCLUDED:
  STARTUP.obj (?C_STARTUP)
         COMMENT TYPE 1: A51 / ASM51 Assembler
  main.obj (MAIN)
         COMMENT TYPE 0: C51 V9.54
  EX_Init.obj (EX_INIT)
         COMMENT TYPE 0: C51 V9.54
  HAL_Button.obj (HAL_BUTTON)
         COMMENT TYPE 0: C51 V9.54
  HAL_Battery.obj (HAL_BATTERY)
         COMMENT TYPE 0: C51 V9.54
  HAL_Temperature.obj (HAL_TEMPERATURE)
         COMMENT TYPE 0: C51 V9.54
  Device.obj (DEVICE)
         COMMENT TYPE 0: C51 V9.54
  DRV_ADC.obj (DRV_ADC)
         COMMENT TYPE 0: C51 V9.54
  DRV_GPIO.obj (DRV_GPIO)
         COMMENT TYPE 0: C51 V9.54
  DRV_PWM.obj (DRV_PWM)
         COMMENT TYPE 0: C51 V9.54
  DRV_Timer.obj (DRV_TIMER)
         COMMENT TYPE 0: C51 V9.54
  DRV_Uart.obj (DRV_UART)
         COMMENT TYPE 0: C51 V9.54
  C:\KEIL_V5\C51\LIB\C51FPC.LIB (?C?FPADD)
         COMMENT TYPE 1: A51 / ASM51 Assembler
  C:\KEIL_V5\C51\LIB\C51FPC.LIB (?C?FPDIV)
         COMMENT TYPE 1: A51 / ASM51 Assembler
  C:\KEIL_V5\C51\LIB\C51FPC.LIB (?C?FCAST)
         COMMENT TYPE 1: A51 / ASM51 Assembler
  C:\KEIL_V5\C51\LIB\C51FPC.LIB (?C?CASTF)
         COMMENT TYPE 1: A51 / ASM51 Assembler
  C:\KEIL_V5\C51\LIB\C51FPC.LIB (?C?FPGETOPN)
         COMMENT TYPE 1: A51 / ASM51 Assembler
  C:\KEIL_V5\C51\LIB\C51C.LIB (?C_INIT)
         COMMENT TYPE 1: A51 / ASM51 Assembler
  C:\KEIL_V5\C51\LIB\C51C.LIB (?C?CLDPTR)
         COMMENT TYPE 1: A51 / ASM51 Assembler
  C:\KEIL_V5\C51\LIB\C51C.LIB (?C?IMUL)
         COMMENT TYPE 1: A51 / ASM51 Assembler
  C:\KEIL_V5\C51\LIB\C51C.LIB (?C?UIDIV)
         COMMENT TYPE 1: A51 / ASM51 Assembler
  C:\KEIL_V5\C51\LIB\C51C.LIB (?C?LADD)
         COMMENT TYPE 1: A51 / ASM51 Assembler
  C:\KEIL_V5\C51\LIB\C51C.LIB (?C?LSUB)
         COMMENT TYPE 1: A51 / ASM51 Assembler
  C:\KEIL_V5\C51\LIB\C51C.LIB (?C?LMUL)
         COMMENT TYPE 1: A51 / ASM51 Assembler
  C:\KEIL_V5\C51\LIB\C51C.LIB (?C?ULDIV)
         COMMENT TYPE 1: A51 / ASM51 Assembler
  C:\KEIL_V5\C51\LIB\C51C.LIB (?C?LNEG)
         COMMENT TYPE 1: A51 / ASM51 Assembler
  C:\KEIL_V5\C51\LIB\C51C.LIB (?C?SLCMP)
         COMMENT TYPE 1: A51 / ASM51 Assembler
  C:\KEIL_V5\C51\LIB\C51C.LIB (?C?ULCMP)
LX51 LINKER/LOCATER V4.66.41.0                                                        03/10/2021  14:40:17  PAGE 2


         COMMENT TYPE 1: A51 / ASM51 Assembler
  C:\KEIL_V5\C51\LIB\C51C.LIB (?C?LLDPDATA)
         COMMENT TYPE 1: A51 / ASM51 Assembler
  C:\KEIL_V5\C51\LIB\C51C.LIB (?C?LLDCODE)
         COMMENT TYPE 1: A51 / ASM51 Assembler
  C:\KEIL_V5\C51\LIB\C51C.LIB (?C?LLDPDATA0)
         COMMENT TYPE 1: A51 / ASM51 Assembler
  C:\KEIL_V5\C51\LIB\C51C.LIB (?C?LSTPDATA)
         COMMENT TYPE 1: A51 / ASM51 Assembler
  C:\KEIL_V5\C51\LIB\C51C.LIB (?C?LSTKPDATA)
         COMMENT TYPE 1: A51 / ASM51 Assembler
  C:\KEIL_V5\C51\LIB\C51C.LIB (?C?OFFXADD)
         COMMENT TYPE 1: A51 / ASM51 Assembler
  C:\KEIL_V5\C51\LIB\C51C.LIB (?C?CCASE)
         COMMENT TYPE 1: A51 / ASM51 Assembler


ACTIVE MEMORY CLASSES OF MODULE:  Teslin (?C_STARTUP)

BASE        START       END         USED      MEMORY CLASS
==========================================================
C:000000H   C:000100H   C:00FFFFH   001863H   CODE
C:000000H   C:000100H   C:00FFFFH   00004BH   CONST
I:000000H   I:000000H   I:0000FFH   000001H   IDATA
X:000000H   X:000000H   X:0000FFH   00009CH   PDATA
I:000020H.0 I:000020H.0 I:00002FH.7 000000H.3 BIT
I:000000H   I:000000H   I:00007FH   000008H   DATA


MEMORY MAP OF MODULE:  Teslin (?C_STARTUP)


START     STOP      LENGTH    ALIGN  RELOC    MEMORY CLASS   SEGMENT NAME
=========================================================================

* * * * * * * * * * *   D A T A   M E M O R Y   * * * * * * * * * * * * *
000000H   000007H   000008H   ---    AT..     DATA           "REG BANK 0"
000008H.0 00001FH.7 000018H.0 ---    ---      **GAP**
000020H.0 000020H.1 000000H.2 BIT    UNIT     BIT            ?BI?DRV_UART
000020H.2 000020H.2 000000H.1 BIT    UNIT     BIT            ?BI?DRV_ADC
000020H.3 000020H   000000H.5 ---    ---      **GAP**
000021H   000021H   000001H   BYTE   UNIT     IDATA          ?STACK

* * * * * * * * * * *   C O D E   M E M O R Y   * * * * * * * * * * * * *
000000H   000002H   000003H   ---    OFFS..   CODE           ?CO??C_STARTUP?0
000003H   000005H   000003H   BYTE   OFFS..   CODE           ?EX_INIT?00003
000006H   00000AH   000005H   ---    ---      **GAP**
00000BH   00000DH   000003H   BYTE   OFFS..   CODE           ?DRV_TIMER?0000B
00000EH   000012H   000005H   ---    ---      **GAP**
000013H   000015H   000003H   BYTE   OFFS..   CODE           ?EX_INIT?00013
000016H   000022H   00000DH   ---    ---      **GAP**
000023H   000025H   000003H   BYTE   OFFS..   CODE           ?DRV_UART?00023
000026H   00002AH   000005H   ---    ---      **GAP**
00002BH   00002DH   000003H   BYTE   OFFS..   CODE           ?DRV_TIMER?0002B
00002EH   000032H   000005H   ---    ---      **GAP**
000033H   000035H   000003H   BYTE   OFFS..   CODE           ?DRV_ADC?00033
000036H   000042H   00000DH   ---    ---      **GAP**
000043H   000045H   000003H   BYTE   OFFS..   CODE           ?DRV_PWM?00043
000046H   000052H   00000DH   ---    ---      **GAP**
000053H   000055H   000003H   BYTE   OFFS..   CODE           ?EX_INIT?00053
000056H   0000FFH   0000AAH   ---    ---      **GAP**
000100H   0005C3H   0004C4H   BYTE   UNIT     CODE           ?C?LIB_CODE
0005C4H   0007A7H   0001E4H   BYTE   UNIT     CODE           ?PR?HAL_TEMPERATUREMONITOR?HAL_TEMPERATURE
0007A8H   000919H   000172H   BYTE   UNIT     CODE           ?PR?BUTTONBOARDSPROC?HAL_BUTTON
00091AH   000A57H   00013EH   BYTE   UNIT     CODE           ?PR?HAL_BATTERYMONITOR?HAL_BATTERY
LX51 LINKER/LOCATER V4.66.41.0                                                        03/10/2021  14:40:17  PAGE 3


000A58H   000B4CH   0000F5H   BYTE   UNIT     CODE           ?PR?_ISPLUSMINUSFUNCTIONLEDFLASHVALID?HAL_BUTTON
000B4DH   000C32H   0000E6H   BYTE   UNIT     CODE           ?C_INITSEG
000C33H   000D0DH   0000DBH   BYTE   UNIT     CODE           ?PR?POWERBUTTONPROC?HAL_BUTTON
000D0EH   000DB1H   0000A4H   BYTE   UNIT     CODE           ?PR?DEVICEAPP_MODUSRUN?DEVICE
000DB2H   000E52H   0000A1H   BYTE   UNIT     CODE           ?PR?BATTERYSAMPLEFITER?HAL_BATTERY
000E53H   000EF1H   00009FH   BYTE   UNIT     CODE           ?PR?MOTORSMOOTHUPDATE?HAL_BUTTON
000EF2H   000F8FH   00009EH   BYTE   UNIT     CODE           ?PR?_ADC_SAMPLE?DRV_ADC
000F90H   001029H   00009AH   BYTE   UNIT     CODE           ?C_C51STARTUP
00102AH   0010ABH   000082H   BYTE   UNIT     CODE           ?PR?BUTTONBOARDSCHECK?HAL_BUTTON
0010ACH   001113H   000068H   BYTE   UNIT     CODE           ?PR?BUTTONPRESSEDPLUSPROCESS?HAL_BUTTON
001114H   00117BH   000068H   BYTE   UNIT     CODE           ?PR?BUTTONPRESSEDMINUSPROCESS?HAL_BUTTON
00117CH   0011E2H   000067H   BYTE   UNIT     CODE           ?PR?MOTORTHREEPLUSINDICATION?HAL_BUTTON
0011E3H   00123BH   000059H   BYTE   UNIT     CODE           ?PR?DEVICEAUTOOFF?DEVICE
00123CH   00128BH   000050H   BYTE   UNIT     CODE           ?PR?_ADC_INIT?DRV_ADC
00128CH   0012DBH   000050H   BYTE   UNIT     CODE           ?PR?TIMER0?DRV_TIMER
0012DCH   001322H   000047H   BYTE   UNIT     CODE           ?PR?_ADCPHYSICALVOLTAGE?DRV_ADC
001323H   001364H   000042H   BYTE   UNIT     CODE           ?PR?DEVICEAUTOOFFCOUNT?DEVICE
001365H   0013A4H   000040H   BYTE   UNIT     CODE           ?PR?TIMER2INT?DRV_TIMER
0013A5H   0013DFH   00003BH   BYTE   UNIT     CODE           ?PR?EX0?EX_INIT
0013E0H   001416H   000037H   BYTE   UNIT     CODE           ?PR?BUTTONPRESSEDLONGMINUSPROCESS?HAL_BUTTON
001417H   00144DH   000037H   BYTE   UNIT     CODE           ?PR?TEMPERATUREWARNING?HAL_BATTERY
00144EH   00147EH   000031H   BYTE   UNIT     CODE           ?PR?VIBMOTORLEVELBACKTOLOWWITHCASECHANGE?HAL_BUTTON
00147FH   0014AFH   000031H   BYTE   UNIT     CODE           ?PR?DEVICEOFF?HAL_BUTTON
0014B0H   0014DFH   000030H   BYTE   UNIT     CODE           ?PR?_LEDCURRENTSTATE?DRV_GPIO
0014E0H   00150EH   00002FH   BYTE   UNIT     CODE           ?PR?PATMOTORTIMERUN?DRV_TIMER
00150FH   00153DH   00002FH   BYTE   UNIT     CODE           ?PR?VIBMOTORTIMERUN?DRV_TIMER
00153EH   001568H   00002BH   BYTE   UNIT     CODE           ?PR?BOTHPRESSEDLEDBLINK?DRV_GPIO
001569H   001592H   00002AH   BYTE   UNIT     CODE           ?PR?BUTTONBOARDSCOUNT?HAL_BUTTON
001593H   0015B8H   000026H   BYTE   UNIT     CODE           ?PR?_PATMOTORDUTYSET?DRV_PWM
0015B9H   0015DEH   000026H   BYTE   UNIT     CODE           ?PR?_VIBMOTORDUTYSET?DRV_PWM
0015DFH   001604H   000026H   BYTE   UNIT     CODE           ?PR?TIMER_INIT?DRV_TIMER
001605H   001628H   000024H   BYTE   UNIT     CODE           ?PR?DEVICEAPP_SETMOTORMODE?DEVICE
001629H   00164BH   000023H   BYTE   UNIT     CODE           ?PR?POWERBUTTONDEBOUNCE?HAL_BUTTON
00164CH   00166EH   000023H   BYTE   UNIT     CODE           ?PR?ISBUTTONPRESSED?HAL_BUTTON
00166FH   00168DH   00001FH   BYTE   UNIT     CODE           ?PR?MOTORSMOOTHUPDATEENABLE?HAL_BUTTON
00168EH   0016ACH   00001FH   BYTE   UNIT     CODE           ?PR?IO_INIT?DRV_GPIO
0016ADH   0016CBH   00001FH   BYTE   UNIT     CODE           ?PR?_DELAY_MS?DRV_TIMER
0016CCH   0016E8H   00001DH   BYTE   UNIT     CODE           ?PR?MAIN?MAIN
0016E9H   001703H   00001BH   BYTE   UNIT     CODE           ?PR?BATTERYSAMPLEPARAMCLEAR?HAL_BATTERY
001704H   00171EH   00001BH   BYTE   UNIT     CODE           ?PR?DEVICEAPP_SETMODUS?DEVICE
00171FH   001738H   00001AH   BYTE   UNIT     CODE           ?PR?_ISBUTTONBOARDSPRESSED?HAL_BUTTON
001739H   001752H   00001AH   BYTE   UNIT     CODE           ?PR?MOTORSTOP?HAL_BUTTON
001753H   00176CH   00001AH   BYTE   UNIT     CODE           ?PR?UPDOWNPRESSEDLEDBLINK?DRV_GPIO
00176DH   001786H   00001AH   BYTE   UNIT     CODE           ?PR?MINUSBUTTONLONGPRESSEDLEDBLINK?DRV_GPIO
001787H   0017A0H   00001AH   BYTE   UNIT     CODE           ?PR?_TIMERUARTSENDSTRING?DRV_UART
0017A1H   0017B6H   000016H   BYTE   UNIT     CODE           ?PR?BATTERYSAMPLEFREQUENCE?HAL_BATTERY
0017B7H   0017CBH   000015H   BYTE   UNIT     CODE           ?PR?_TIMERUARTSENDBYTE?DRV_UART
0017CCH   0017DFH   000014H   BYTE   UNIT     CODE           ?PR?DEVICEAUTOOFFPARAMCLEAR?DEVICE
0017E0H   0017F2H   000013H   BYTE   UNIT     CODE           ?PR?BUTTONTRIGGERPARAMCLEAR?HAL_BUTTON
0017F3H   001803H   000011H   BYTE   UNIT     CODE           ?PR?BATTERYSAMPLETIMERCOUNTCLEAR?HAL_BATTERY
001804H   001813H   000010H   BYTE   UNIT     CODE           ?PR?GPIO_INIT?DRV_GPIO
001814H   001822H   00000FH   BYTE   UNIT     CODE           ?PR?EX_INIT?EX_INIT
001823H   001831H   00000FH   BYTE   UNIT     CODE           ?PR?HAL_BATTERYADCPHYSICALVOLTAGE?HAL_BATTERY
001832H   00183FH   00000EH   BYTE   UNIT     CODE           ?PR?POWERBUTTONISRTRIGGED?HAL_BUTTON
001840H   00184CH   00000DH   BYTE   UNIT     CODE           ?PR?MOTORSMOOTHSTEPCLEAR?HAL_BUTTON
00184DH   001857H   00000BH   BYTE   UNIT     CODE           ?PR?ISPOWERBUTTONPRESSED?HAL_BUTTON
001858H   001862H   00000BH   BYTE   UNIT     CODE           ?PR?_DEVICEAPP_SETAPPSTATE?DEVICE
001863H   00186DH   00000BH   BYTE   UNIT     CODE           ?PR?_DEVICEAPP_SETAPPMODUS?DEVICE
00186EH   001878H   00000BH   BYTE   UNIT     CODE           ?PR?WATCHDOGSTOP?DRV_TIMER
001879H   001882H   00000AH   BYTE   UNIT     CODE           ?PR?BUTTONPHYSICALSTATEGET?HAL_BUTTON
001883H   00188CH   00000AH   BYTE   UNIT     CODE           ?PR?LEDBLINKPARAMEMTERCLEAR?DRV_GPIO
00188DH   001896H   00000AH   BYTE   UNIT     CODE           ?PR?TOUCHFUNCTIONSWITCH?DRV_GPIO
001897H   0018A0H   00000AH   BYTE   UNIT     CODE           ?PR?WATCHDOGINIT?DRV_TIMER
0018A1H   0018A9H   000009H   BYTE   UNIT     CODE           ?PR?ADBATTERYPOWERSUPPLYENABLE?DRV_GPIO
0018AAH   0018B2H   000009H   BYTE   UNIT     CODE           ?PR?PWM_STOP?DRV_PWM
LX51 LINKER/LOCATER V4.66.41.0                                                        03/10/2021  14:40:17  PAGE 4


0018B3H   0018BAH   000008H   BYTE   UNIT     CODE           ?PR?TEMPERATUREVALUEGET?HAL_TEMPERATURE
0018BBH   0018C2H   000008H   BYTE   UNIT     CODE           ?PR?ISCHARGEDCINPUT?DRV_GPIO
0018C3H   0018CAH   000008H   BYTE   UNIT     CODE           ?PR?ISCHARGECOMPLETE?DRV_GPIO
0018CBH   0018D2H   000008H   BYTE   UNIT     CODE           ?PR?ISTOUCHSTATE?DRV_GPIO
0018D3H   0018D9H   000007H   BYTE   UNIT     CODE           ?PR?LEDOFF?DRV_GPIO
0018DAH   0018E0H   000007H   BYTE   UNIT     CODE           ?PR?ADBATTERYPOWERSUPPLYDISABLE?DRV_GPIO
0018E1H   0018E7H   000007H   BYTE   UNIT     CODE           ?PR?TIMERUARTRECEIVE?DRV_UART
0018E8H   0018EDH   000006H   BYTE   UNIT     CODE           ?PR?ADC_INTERRUPT?DRV_ADC
0018EEH   0018F3H   000006H   BYTE   UNIT     CODE           ?PR?PATMOTORDUTYCYCLEREGISTERVALUEGET?DRV_PWM
0018F4H   0018F9H   000006H   BYTE   UNIT     CODE           ?PR?VIBMOTORDUTYCYCLEREGISTERVALUEGET?DRV_PWM
0018FAH   0018FEH   000005H   BYTE   UNIT     CODE           ?PR?ISMOTORINDICATEPROCESS?HAL_BUTTON
0018FFH   001903H   000005H   BYTE   UNIT     CODE           ?PR?PATMOTORDUTYGET?HAL_BUTTON
001904H   001908H   000005H   BYTE   UNIT     CODE           ?PR?VIBMOTORDUTYGET?HAL_BUTTON
001909H   00190DH   000005H   BYTE   UNIT     CODE           ?PR?TEMPERATUREOVERSTATEGET?HAL_BATTERY
00190EH   001912H   000005H   BYTE   UNIT     CODE           ?PR?_TEMPERATUREOVERSTATESET?HAL_BATTERY
001913H   001917H   000005H   BYTE   UNIT     CODE           ?PR?DEVICEAPP_GETSYSTEMSTATE?DEVICE
001918H   00191CH   000005H   BYTE   UNIT     CODE           ?PR?DEVICEAPP_GETMODUS?DEVICE
00191DH   001921H   000005H   BYTE   UNIT     CODE           ?PR?DEVICEAPP_GETMOTORMODE?DEVICE
001922H   001926H   000005H   BYTE   UNIT     CODE           ?PR?UART_STOP?DRV_UART
001927H   00192AH   000004H   BYTE   UNIT     CODE           ?PR?ADC_STOP?DRV_ADC
00192BH   00192EH   000004H   BYTE   UNIT     CODE           ?PR?WATCHDOGCLEAR?DRV_TIMER
00192FH   001931H   000003H   BYTE   UNIT     CODE           ?PR?LEDON?DRV_GPIO
001932H   001934H   000003H   BYTE   UNIT     CODE           ?PR?LEDFLASH?DRV_GPIO
001935H   001937H   000003H   BYTE   UNIT     CODE           ?PR?CHARGEFUNCTIONENABLE?DRV_GPIO
001938H   00193AH   000003H   BYTE   UNIT     CODE           ?PR?CHARGEFUNCTIONDISABLE?DRV_GPIO
00193BH   00193DH   000003H   BYTE   UNIT     CODE           ?PR?TOUCHFUNCTIONENABLE?DRV_GPIO
00193EH   001940H   000003H   BYTE   UNIT     CODE           ?PR?TOUCHFUNCTIONDISABLE?DRV_GPIO
001941H   001941H   000001H   BYTE   UNIT     CODE           ?PR?EX1?EX_INIT
001942H   001942H   000001H   BYTE   UNIT     CODE           ?PR?EX2?EX_INIT
001943H   001943H   000001H   BYTE   UNIT     CODE           ?PR?PWM_INIT?DRV_PWM
001944H   001944H   000001H   BYTE   UNIT     CODE           ?PR?PWMINT?DRV_PWM
001945H   001945H   000001H   BYTE   UNIT     CODE           ?PR?UART0_INIT?DRV_UART
001946H   001946H   000001H   BYTE   UNIT     CODE           ?PR?UARTINT?DRV_UART
001947H   001947H   000001H   BYTE   UNIT     CODE           ?PR?UARTRXDATACLEAR?DRV_UART
001948H   001992H   00004BH   BYTE   UNIT     CONST          ?CO?HAL_TEMPERATURE

* * * * * * * * * * *  X D A T A   M E M O R Y  * * * * * * * * * * * * *
000000H   00004CH   00004DH   BYTE   INPAGE   PDATA          ?PD?HAL_BUTTON
00004DH   00006BH   00001FH   BYTE   INPAGE   PDATA          _PDATA_GROUP_
00006CH   000088H   00001DH   BYTE   INPAGE   PDATA          ?PD?HAL_BATTERY
000089H   000092H   00000AH   BYTE   INPAGE   PDATA          ?PD?DEVICE
000093H   000096H   000004H   BYTE   INPAGE   PDATA          ?PD?DRV_PWM
000097H   000099H   000003H   BYTE   INPAGE   PDATA          ?PD?DRV_GPIO
00009AH   00009BH   000002H   BYTE   INPAGE   PDATA          ?PD?DRV_TIMER



OVERLAY MAP OF MODULE:   Teslin (?C_STARTUP)


FUNCTION/MODULE                               PDATA_GROUP
--> CALLED FUNCTION/MODULE                    START  STOP
=========================================================
?C_C51STARTUP                                 ----- -----
  +--> MAIN/MAIN
  +--> ?C_INITSEG

MAIN/MAIN                                     ----- -----
  +--> EX_INIT/EX_INIT
  +--> GPIO_INIT/DRV_GPIO
  +--> TIMER_INIT/DRV_TIMER
  +--> PWM_INIT/DRV_PWM
  +--> POWERBUTTONPROC/HAL_BUTTON
  +--> HAL_BATTERYMONITOR/HAL_BATTERY
  +--> BUTTONBOARDSPROC/HAL_BUTTON
LX51 LINKER/LOCATER V4.66.41.0                                                        03/10/2021  14:40:17  PAGE 5


  +--> DEVICEAPP_MODUSRUN/DEVICE
  +--> DEVICEAUTOOFF/DEVICE

EX_INIT/EX_INIT                               ----- -----

GPIO_INIT/DRV_GPIO                            ----- -----
  +--> IO_INIT/DRV_GPIO
  +--> LEDOFF/DRV_GPIO
  +--> ADBATTERYPOWERSUPPLYDISABLE/DRV_GPIO
  +--> CHARGEFUNCTIONENABLE/DRV_GPIO
  +--> TOUCHFUNCTIONDISABLE/DRV_GPIO

IO_INIT/DRV_GPIO                              ----- -----

LEDOFF/DRV_GPIO                               ----- -----

ADBATTERYPOWERSUPPLYDISABLE/DRV_GPIO          ----- -----

CHARGEFUNCTIONENABLE/DRV_GPIO                 ----- -----

TOUCHFUNCTIONDISABLE/DRV_GPIO                 ----- -----

TIMER_INIT/DRV_TIMER                          ----- -----

PWM_INIT/DRV_PWM                              ----- -----

POWERBUTTONPROC/HAL_BUTTON                    ----- -----
  +--> DEVICEAPP_GETSYSTEMSTATE/DEVICE
  +--> ISCHARGEDCINPUT/DRV_GPIO
  +--> _DEVICEAPP_SETAPPSTATE/DEVICE
  +--> WATCHDOGINIT/DRV_TIMER
  +--> CHARGEFUNCTIONENABLE/DRV_GPIO
  +--> ADBATTERYPOWERSUPPLYENABLE/DRV_GPIO
  +--> ISPOWERBUTTONPRESSED/HAL_BUTTON
  +--> _LEDCURRENTSTATE/DRV_GPIO
  +--> TOUCHFUNCTIONENABLE/DRV_GPIO
  +--> _DEVICEAPP_SETAPPMODUS/DEVICE
  +--> DEVICEAPP_SETMOTORMODE/DEVICE
  +--> DEVICEOFF/HAL_BUTTON

DEVICEAPP_GETSYSTEMSTATE/DEVICE               ----- -----

ISCHARGEDCINPUT/DRV_GPIO                      ----- -----

_DEVICEAPP_SETAPPSTATE/DEVICE                 ----- -----

WATCHDOGINIT/DRV_TIMER                        ----- -----

ADBATTERYPOWERSUPPLYENABLE/DRV_GPIO           ----- -----

ISPOWERBUTTONPRESSED/HAL_BUTTON               ----- -----
  +--> BUTTONPHYSICALSTATEGET/HAL_BUTTON

BUTTONPHYSICALSTATEGET/HAL_BUTTON             ----- -----

_LEDCURRENTSTATE/DRV_GPIO                     ----- -----
  +--> UPDOWNPRESSEDLEDBLINK/DRV_GPIO
  +--> BOTHPRESSEDLEDBLINK/DRV_GPIO
  +--> MINUSBUTTONLONGPRESSEDLEDBLINK/DRV_GPIO
  +--> LEDFLASH/DRV_GPIO
  +--> LEDON/DRV_GPIO
  +--> LEDOFF/DRV_GPIO

UPDOWNPRESSEDLEDBLINK/DRV_GPIO                ----- -----
  +--> LEDFLASH/DRV_GPIO
LX51 LINKER/LOCATER V4.66.41.0                                                        03/10/2021  14:40:17  PAGE 6


  +--> _DELAY_MS/DRV_TIMER

LEDFLASH/DRV_GPIO                             ----- -----

_DELAY_MS/DRV_TIMER                           ----- -----

BOTHPRESSEDLEDBLINK/DRV_GPIO                  0050H 0050H
  +--> LEDFLASH/DRV_GPIO
  +--> _DELAY_MS/DRV_TIMER

MINUSBUTTONLONGPRESSEDLEDBLINK/DRV_GPIO       ----- -----
  +--> LEDFLASH/DRV_GPIO
  +--> _DELAY_MS/DRV_TIMER

LEDON/DRV_GPIO                                ----- -----

TOUCHFUNCTIONENABLE/DRV_GPIO                  ----- -----

_DEVICEAPP_SETAPPMODUS/DEVICE                 ----- -----

DEVICEAPP_SETMOTORMODE/DEVICE                 ----- -----
  +--> DEVICEAPP_GETSYSTEMSTATE/DEVICE
  +--> _DEVICEAPP_SETAPPMODUS/DEVICE
  +--> VIBMOTORLEVELBACKTOLOWWITHCASECHANGE/HAL_BUTTON

VIBMOTORLEVELBACKTOLOWWITHCASECHANGE/HAL+     0050H 0050H
... _BUTTON
  +--> DEVICEAPP_GETMOTORMODE/DEVICE
  +--> DEVICEAPP_GETMODUS/DEVICE

DEVICEAPP_GETMOTORMODE/DEVICE                 ----- -----

DEVICEAPP_GETMODUS/DEVICE                     ----- -----

DEVICEOFF/HAL_BUTTON                          ----- -----
  +--> LEDOFF/DRV_GPIO
  +--> WATCHDOGSTOP/DRV_TIMER
  +--> TOUCHFUNCTIONDISABLE/DRV_GPIO
  +--> ADBATTERYPOWERSUPPLYDISABLE/DRV_GPIO
  +--> PWM_STOP/DRV_PWM
  +--> ADC_STOP/DRV_ADC
  +--> UART_STOP/DRV_UART
  +--> MOTORSTOP/HAL_BUTTON
  +--> DEVICEAUTOOFFPARAMCLEAR/DEVICE
  +--> BATTERYSAMPLEPARAMCLEAR/HAL_BATTERY
  +--> BUTTONTRIGGERPARAMCLEAR/HAL_BUTTON
  +--> _DEVICEAPP_SETAPPSTATE/DEVICE
  +--> DEVICEAPP_SETMOTORMODE/DEVICE

WATCHDOGSTOP/DRV_TIMER                        ----- -----

PWM_STOP/DRV_PWM                              ----- -----

ADC_STOP/DRV_ADC                              ----- -----

UART_STOP/DRV_UART                            ----- -----

MOTORSTOP/HAL_BUTTON                          ----- -----
  +--> _PATMOTORDUTYSET/DRV_PWM
  +--> _VIBMOTORDUTYSET/DRV_PWM

_PATMOTORDUTYSET/DRV_PWM                      ----- -----

_VIBMOTORDUTYSET/DRV_PWM                      ----- -----

LX51 LINKER/LOCATER V4.66.41.0                                                        03/10/2021  14:40:17  PAGE 7


DEVICEAUTOOFFPARAMCLEAR/DEVICE                ----- -----

BATTERYSAMPLEPARAMCLEAR/HAL_BATTERY           ----- -----
  +--> _TEMPERATUREOVERSTATESET/HAL_BATTERY

_TEMPERATUREOVERSTATESET/HAL_BATTERY          ----- -----

BUTTONTRIGGERPARAMCLEAR/HAL_BUTTON            ----- -----

HAL_BATTERYMONITOR/HAL_BATTERY                004DH 004FH
  +--> TEMPERATUREWARNING/HAL_BATTERY
  +--> ISBUTTONPRESSED/HAL_BUTTON
  +--> DEVICEAPP_GETSYSTEMSTATE/DEVICE
  +--> HAL_TEMPERATUREMONITOR/HAL_TEMPERATURE
  +--> BATTERYSAMPLEFITER/HAL_BATTERY
  +--> DEVICEOFF/HAL_BUTTON
  +--> ISCHARGEDCINPUT/DRV_GPIO
  +--> TEMPERATUREOVERSTATEGET/HAL_BATTERY
  +--> CHARGEFUNCTIONDISABLE/DRV_GPIO
  +--> _TEMPERATUREOVERSTATESET/HAL_BATTERY
  +--> ISCHARGECOMPLETE/DRV_GPIO
  +--> CHARGEFUNCTIONENABLE/DRV_GPIO
  +--> _LEDCURRENTSTATE/DRV_GPIO
  +--> BATTERYSAMPLETIMERCOUNTCLEAR/HAL_BATTERY

TEMPERATUREWARNING/HAL_BATTERY                ----- -----
  +--> _LEDCURRENTSTATE/DRV_GPIO

ISBUTTONPRESSED/HAL_BUTTON                    ----- -----
  +--> ISPOWERBUTTONPRESSED/HAL_BUTTON

HAL_TEMPERATUREMONITOR/HAL_TEMPERATURE        0050H 0065H
  +--> TEMPERATUREVALUEGET/HAL_TEMPERATURE
  +--> ?CO?HAL_TEMPERATURE

TEMPERATUREVALUEGET/HAL_TEMPERATURE           ----- -----
  +--> _ADC_SAMPLE/DRV_ADC

_ADC_SAMPLE/DRV_ADC                           0066H 006BH
  +--> _ADC_INIT/DRV_ADC

_ADC_INIT/DRV_ADC                             ----- -----

?CO?HAL_TEMPERATURE                           ----- -----

BATTERYSAMPLEFITER/HAL_BATTERY                0050H 0054H
  +--> HAL_BATTERYADCPHYSICALVOLTAGE/HAL_BATTERY

HAL_BATTERYADCPHYSICALVOLTAGE/HAL_BATTER+     ----- -----
... Y
  +--> _ADCPHYSICALVOLTAGE/DRV_ADC

_ADCPHYSICALVOLTAGE/DRV_ADC                   0055H 0058H
  +--> _ADC_SAMPLE/DRV_ADC

TEMPERATUREOVERSTATEGET/HAL_BATTERY           ----- -----

CHARGEFUNCTIONDISABLE/DRV_GPIO                ----- -----

ISCHARGECOMPLETE/DRV_GPIO                     ----- -----

BATTERYSAMPLETIMERCOUNTCLEAR/HAL_BATTERY      ----- -----

BUTTONBOARDSPROC/HAL_BUTTON                   004DH 004DH
  +--> ISPOWERBUTTONPRESSED/HAL_BUTTON
LX51 LINKER/LOCATER V4.66.41.0                                                        03/10/2021  14:40:17  PAGE 8


  +--> DEVICEAPP_GETSYSTEMSTATE/DEVICE
  +--> TEMPERATUREOVERSTATEGET/HAL_BATTERY
  +--> BUTTONBOARDSCHECK/HAL_BUTTON
  +--> _LEDCURRENTSTATE/DRV_GPIO
  +--> _ISBUTTONBOARDSPRESSED/HAL_BUTTON
  +--> DEVICEAPP_SETMOTORMODE/DEVICE
  +--> TOUCHFUNCTIONSWITCH/DRV_GPIO
  +--> _ISPLUSMINUSFUNCTIONLEDFLASHVALID/HAL_BUTTON
  +--> BUTTONPRESSEDPLUSPROCESS/HAL_BUTTON
  +--> DEVICEAPP_SETMODUS/DEVICE
  +--> BUTTONPRESSEDMINUSPROCESS/HAL_BUTTON
  +--> BUTTONPRESSEDLONGMINUSPROCESS/HAL_BUTTON
  +--> LEDBLINKPARAMEMTERCLEAR/DRV_GPIO

BUTTONBOARDSCHECK/HAL_BUTTON                  004EH 004EH
  +--> _ADC_SAMPLE/DRV_ADC

_ISBUTTONBOARDSPRESSED/HAL_BUTTON             ----- -----

TOUCHFUNCTIONSWITCH/DRV_GPIO                  ----- -----
  +--> TOUCHFUNCTIONDISABLE/DRV_GPIO
  +--> TOUCHFUNCTIONENABLE/DRV_GPIO

_ISPLUSMINUSFUNCTIONLEDFLASHVALID/HAL_BU+     004EH 004FH
... TTON
  +--> DEVICEAPP_GETMOTORMODE/DEVICE
  +--> DEVICEAPP_GETMODUS/DEVICE

BUTTONPRESSEDPLUSPROCESS/HAL_BUTTON           004EH 004EH
  +--> DEVICEAPP_GETMOTORMODE/DEVICE
  +--> DEVICEAPP_GETMODUS/DEVICE

DEVICEAPP_SETMODUS/DEVICE                     ----- -----
  +--> DEVICEAPP_GETMODUS/DEVICE
  +--> _DEVICEAPP_SETAPPMODUS/DEVICE

BUTTONPRESSEDMINUSPROCESS/HAL_BUTTON          004EH 004EH
  +--> DEVICEAPP_GETMOTORMODE/DEVICE
  +--> DEVICEAPP_GETMODUS/DEVICE

BUTTONPRESSEDLONGMINUSPROCESS/HAL_BUTTON      004EH 004EH
  +--> DEVICEAPP_GETMOTORMODE/DEVICE
  +--> DEVICEAPP_GETMODUS/DEVICE

LEDBLINKPARAMEMTERCLEAR/DRV_GPIO              ----- -----

DEVICEAPP_MODUSRUN/DEVICE                     004DH 004EH
  +--> MOTORTHREEPLUSINDICATION/HAL_BUTTON
  +--> DEVICEAPP_GETMODUS/DEVICE
  +--> DEVICEAPP_GETSYSTEMSTATE/DEVICE
  +--> ISMOTORINDICATEPROCESS/HAL_BUTTON
  +--> TEMPERATUREOVERSTATEGET/HAL_BATTERY
  +--> _VIBMOTORDUTYSET/DRV_PWM
  +--> _PATMOTORDUTYSET/DRV_PWM
  +--> ISTOUCHSTATE/DRV_GPIO
  +--> MOTORSMOOTHUPDATE/HAL_BUTTON
  +--> PATMOTORDUTYGET/HAL_BUTTON
  +--> VIBMOTORDUTYGET/HAL_BUTTON
  +--> DEVICEAPP_GETMOTORMODE/DEVICE
  +--> MOTORSMOOTHSTEPCLEAR/HAL_BUTTON

MOTORTHREEPLUSINDICATION/HAL_BUTTON           ----- -----
  +--> _VIBMOTORDUTYSET/DRV_PWM
  +--> DEVICEAPP_GETMODUS/DEVICE

LX51 LINKER/LOCATER V4.66.41.0                                                        03/10/2021  14:40:17  PAGE 9


ISMOTORINDICATEPROCESS/HAL_BUTTON             ----- -----

ISTOUCHSTATE/DRV_GPIO                         ----- -----

MOTORSMOOTHUPDATE/HAL_BUTTON                  ----- -----

PATMOTORDUTYGET/HAL_BUTTON                    ----- -----

VIBMOTORDUTYGET/HAL_BUTTON                    ----- -----

MOTORSMOOTHSTEPCLEAR/HAL_BUTTON               ----- -----

DEVICEAUTOOFF/DEVICE                          ----- -----
  +--> DEVICEAPP_GETSYSTEMSTATE/DEVICE
  +--> ISTOUCHSTATE/DRV_GPIO
  +--> DEVICEOFF/HAL_BUTTON

?C_INITSEG                                    ----- -----

*** NEW ROOT ********************************

EX0/EX_INIT                                   ----- -----
  +--> POWERBUTTONISRTRIGGED/HAL_BUTTON

POWERBUTTONISRTRIGGED/HAL_BUTTON              ----- -----
  +--> DEVICEAPP_GETSYSTEMSTATE/DEVICE

*** NEW ROOT ********************************

EX1/EX_INIT                                   ----- -----

*** NEW ROOT ********************************

EX2/EX_INIT                                   ----- -----

*** NEW ROOT ********************************

ADC_INTERRUPT/DRV_ADC                         ----- -----

*** NEW ROOT ********************************

PWMINT/DRV_PWM                                ----- -----

*** NEW ROOT ********************************

TIMER0/DRV_TIMER                              ----- -----
  +--> BATTERYSAMPLEFREQUENCE/HAL_BATTERY
  +--> POWERBUTTONDEBOUNCE/HAL_BUTTON
  +--> BUTTONBOARDSCOUNT/HAL_BUTTON
  +--> MOTORSMOOTHUPDATEENABLE/HAL_BUTTON
  +--> WATCHDOGCLEAR/DRV_TIMER
  +--> DEVICEAUTOOFFCOUNT/DEVICE

BATTERYSAMPLEFREQUENCE/HAL_BATTERY            ----- -----

POWERBUTTONDEBOUNCE/HAL_BUTTON                ----- -----

BUTTONBOARDSCOUNT/HAL_BUTTON                  ----- -----

MOTORSMOOTHUPDATEENABLE/HAL_BUTTON            ----- -----
  +--> ISTOUCHSTATE/DRV_GPIO

WATCHDOGCLEAR/DRV_TIMER                       ----- -----

DEVICEAUTOOFFCOUNT/DEVICE                     ----- -----
LX51 LINKER/LOCATER V4.66.41.0                                                        03/10/2021  14:40:17  PAGE 10



*** NEW ROOT ********************************

TIMER2INT/DRV_TIMER                           ----- -----
  +--> PATMOTORTIMERUN/DRV_TIMER
  +--> VIBMOTORTIMERUN/DRV_TIMER

PATMOTORTIMERUN/DRV_TIMER                     ----- -----
  +--> PATMOTORDUTYCYCLEREGISTERVALUEGET/DRV_PWM

PATMOTORDUTYCYCLEREGISTERVALUEGET/DRV_PW+     ----- -----
... M

VIBMOTORTIMERUN/DRV_TIMER                     ----- -----
  +--> VIBMOTORDUTYCYCLEREGISTERVALUEGET/DRV_PWM

VIBMOTORDUTYCYCLEREGISTERVALUEGET/DRV_PW+     ----- -----
... M

*** NEW ROOT ********************************

UARTINT/DRV_UART                              ----- -----



PUBLIC SYMBOLS OF MODULE:  Teslin (?C_STARTUP)


      VALUE       CLASS    TYPE      PUBLIC SYMBOL NAME
      =================================================
      010002D6H   CODE     ---       ?C?CASTF
      0100059EH   CODE     ---       ?C?CCASE
      01000357H   CODE     ---       ?C?CLDPTR
      00000000H   NUMBER   ---       ?C?CODESEG
      010002A2H   CODE     ---       ?C?FCASTC
      0100029DH   CODE     ---       ?C?FCASTI
      01000298H   CODE     ---       ?C?FCASTL
      01000107H   CODE     ---       ?C?FPADD
      010001FBH   CODE     ---       ?C?FPDIV
      0100030DH   CODE     ---       ?C?FPGETOPN2
      01000342H   CODE     ---       ?C?FPNANRESULT
      0100034CH   CODE     ---       ?C?FPOVERFLOW
      01000324H   CODE     ---       ?C?FPRESULT
      01000338H   CODE     ---       ?C?FPRESULT2
      01000103H   CODE     ---       ?C?FPSUB
      01000349H   CODE     ---       ?C?FPUNDERFLOW
      01000370H   CODE     ---       ?C?IMUL
      010003D7H   CODE     ---       ?C?LADD
      01000550H   CODE     ---       ?C?LLDCODE
      01000544H   CODE     ---       ?C?LLDPDATA
      01000560H   CODE     ---       ?C?LLDPDATA0
      010003F2H   CODE     ---       ?C?LMUL
      0100050FH   CODE     ---       ?C?LNEG
      01000579H   CODE     ---       ?C?LSTKPDATA
      0100056DH   CODE     ---       ?C?LSTPDATA
      010003E4H   CODE     ---       ?C?LSUB
      01000592H   CODE     ---       ?C?OFFXADD
      0100051DH   CODE     ---       ?C?SLCMP
      01000382H   CODE     ---       ?C?UIDIV
      01000533H   CODE     ---       ?C?ULCMP
      0100047DH   CODE     ---       ?C?ULDIV
      00000000H   NUMBER   ---       ?C?XDATASEG
      01000FE5H   CODE     ---       ?C_START
      01000000H   CODE     ---       ?C_STARTUP
      0100123CH   CODE     ---       _ADC_Init
LX51 LINKER/LOCATER V4.66.41.0                                                        03/10/2021  14:40:17  PAGE 11


      01000EF2H   CODE     ---       _ADC_Sample
      010012DCH   CODE     ---       _ADCPhysicalVoltage
      010016ADH   CODE     ---       _Delay_ms
      01001863H   CODE     ---       _DeviceApp_SetAppModus
      01001858H   CODE     ---       _DeviceApp_SetAppState
      0100171FH   CODE     ---       _IsButtonBoardsPressed
      01000A58H   CODE     ---       _IsPlusMinusFunctionLedFlashValid
      010014B0H   CODE     ---       _LEDCurrentState
      01001593H   CODE     ---       _PATMotorDutySet
      0100190EH   CODE     ---       _TemperatureOverStateSet
      010017B7H   CODE     ---       _TimerUartSendByte
      01001787H   CODE     ---       _TimerUartSendString
      010015B9H   CODE     ---       _VIBMotorDutySet
*SFR* 000000D0H.6 DATA     BIT       AC
*SFR* 000000E0H   DATA     BYTE      ACC
      010018DAH   CODE     ---       ADBatteryPowerSupplyDisable
      010018A1H   CODE     ---       ADBatteryPowerSupplyEnable
      010018E8H   CODE     ---       ADC_Interrupt
      01001927H   CODE     ---       ADC_Stop
*SFR* 000000ABH   DATA     BYTE      ADCCFG0
*SFR* 000000ACH   DATA     BYTE      ADCCFG1
*SFR* 000000ADH   DATA     BYTE      ADCCON
      00000020H.2 BIT      BIT       AdcFlag
*SFR* 000000AFH   DATA     BYTE      ADCVH
*SFR* 000000AEH   DATA     BYTE      ADCVL
*SFR* 000000F0H   DATA     BYTE      B
      01000DB2H   CODE     ---       BatterySampleFiter
      010017A1H   CODE     ---       BatterySampleFrequence
      010016E9H   CODE     ---       BatterySampleParamClear
      010017F3H   CODE     ---       BatterySampleTimerCountClear
      0100153EH   CODE     ---       BothPressedLedBlink
*SFR* 000000CEH   DATA     BYTE      BTMCON
      0100102AH   CODE     ---       ButtonBoardsCheck
      01001569H   CODE     ---       ButtonBoardsCount
      010007A8H   CODE     ---       ButtonBoardsProc
      01001879H   CODE     ---       ButtonPhysicalStateGet
      010013E0H   CODE     ---       ButtonPressedLongMinusProcess
      01001114H   CODE     ---       ButtonPressedMinusProcess
      010010ACH   CODE     ---       ButtonPressedPlusProcess
      010017E0H   CODE     ---       ButtonTriggerParamClear
      01001938H   CODE     ---       ChargeFunctionDisable
      01001935H   CODE     ---       ChargeFunctionEnable
*SFR* 000000C8H   DATA     BIT       CP
*SFR* 000000D0H.7 DATA     BIT       CY
      01001918H   CODE     ---       DeviceApp_GetModus
      0100191DH   CODE     ---       DeviceApp_GetMotorMode
      01001913H   CODE     ---       DeviceApp_GetSystemState
      01000D0EH   CODE     ---       DeviceAPP_ModusRun
      01001704H   CODE     ---       DeviceAPP_SetModus
      01001605H   CODE     ---       DeviceApp_SetMotorMode
      010011E3H   CODE     ---       DeviceAutoOff
      01001323H   CODE     ---       DeviceAutoOffCount
      010017CCH   CODE     ---       DeviceAutoOffParamClear
      0100147FH   CODE     ---       DeviceOff
*SFR* 00000083H   DATA     BYTE      DPH
*SFR* 00000082H   DATA     BYTE      DPL
*SFR* 000000A8H.7 DATA     BIT       EA
*SFR* 000000A8H.6 DATA     BIT       EADC
*SFR* 000000A8H   DATA     BIT       EINT0
*SFR* 000000A8H.2 DATA     BIT       EINT1
*SFR* 000000A8H.1 DATA     BIT       ET0
*SFR* 000000A8H.3 DATA     BIT       ET1
*SFR* 000000A8H.5 DATA     BIT       ET2
*SFR* 000000A8H.4 DATA     BIT       EUART
      010013A5H   CODE     ---       EX0
LX51 LINKER/LOCATER V4.66.41.0                                                        03/10/2021  14:40:17  PAGE 12


      01001941H   CODE     ---       EX1
      01001942H   CODE     ---       EX2
      01001814H   CODE     ---       EX_Init
*SFR* 000000C8H.3 DATA     BIT       EXEN2
*SFR* 000000C8H.6 DATA     BIT       EXF2
*SFR* 000000D0H.5 DATA     BIT       F0
*SFR* 000000D0H.1 DATA     BIT       F1
      0200002DH   PDATA    ---       g_astExerciseLevelMap
      02000019H   PDATA    ---       g_astPWMDutyMap
      01001804H   CODE     ---       GPIO_Init
      01001823H   CODE     ---       HAL_BatteryADCPhysicalVoltage
      0100091AH   CODE     ---       HAL_BatteryMonitor
      010005C4H   CODE     ---       HAL_TemperatureMonitor
*SFR* 000000F4H   DATA     BYTE      IAPADE
*SFR* 000000F3H   DATA     BYTE      IAPADH
*SFR* 000000F2H   DATA     BYTE      IAPADL
*SFR* 000000F6H   DATA     BYTE      IAPCTL
*SFR* 000000F5H   DATA     BYTE      IAPDAT
*SFR* 000000F1H   DATA     BYTE      IAPKEY
*SFR* 000000A8H   DATA     BYTE      IE
*SFR* 000000A9H   DATA     BYTE      IE1
*SFR* 000000BAH   DATA     BYTE      INT0F
*SFR* 000000BBH   DATA     BYTE      INT0R
*SFR* 000000BCH   DATA     BYTE      INT1F
*SFR* 000000BDH   DATA     BYTE      INT1R
*SFR* 000000C6H   DATA     BYTE      INT2F
*SFR* 000000C7H   DATA     BYTE      INT2R
      0100168EH   CODE     ---       IO_Init
*SFR* 00000097H   DATA     BYTE      IOHCON
*SFR* 000000B8H   DATA     BYTE      IP
*SFR* 000000B9H   DATA     BYTE      IP1
*SFR* 000000B8H.6 DATA     BIT       IPADC
*SFR* 000000B8H   DATA     BIT       IPINT0
*SFR* 000000B8H.2 DATA     BIT       IPINT1
*SFR* 000000B8H.1 DATA     BIT       IPT0
*SFR* 000000B8H.3 DATA     BIT       IPT1
*SFR* 000000B8H.5 DATA     BIT       IPT2
*SFR* 000000B8H.4 DATA     BIT       IPUART
      0100164CH   CODE     ---       IsButtonPressed
      010018C3H   CODE     ---       IsChargeComplete
      010018BBH   CODE     ---       IsChargeDCInput
      010018FAH   CODE     ---       IsMotorIndicateProcess
      0100184DH   CODE     ---       IsPowerButtonPressed
      010018CBH   CODE     ---       IsTouchState
      01001883H   CODE     ---       LedBlinkParamemterClear
      01001932H   CODE     ---       LEDFlash
      010018D3H   CODE     ---       LEDOff
      0100192FH   CODE     ---       LEDON
      010016CCH   CODE     ---       main
      0100176DH   CODE     ---       MinusButtonLongPressedLedBlink
      01001840H   CODE     ---       MotorSmoothStepClear
      01000E53H   CODE     ---       MotorSmoothUpdate
      0100166FH   CODE     ---       MotorSmoothUpdateEnable
      01001739H   CODE     ---       MotorStop
      0100117CH   CODE     ---       MotorThreePlusIndication
*SFR* 000000FEH   DATA     BYTE      OPINX
*SFR* 000000FFH   DATA     BYTE      OPREG
*SFR* 0000008FH   DATA     BYTE      OTCON
*SFR* 000000D0H.2 DATA     BIT       OV
*SFR* 000000D0H   DATA     BIT       P
*SFR* 00000080H   DATA     BYTE      P0
*SFR* 00000080H   DATA     BIT       P00
*SFR* 00000080H.1 DATA     BIT       P01
*SFR* 00000080H.2 DATA     BIT       P02
*SFR* 00000080H.3 DATA     BIT       P03
LX51 LINKER/LOCATER V4.66.41.0                                                        03/10/2021  14:40:17  PAGE 13


*SFR* 00000080H.4 DATA     BIT       P04
*SFR* 00000080H.5 DATA     BIT       P05
*SFR* 00000080H.6 DATA     BIT       P06
*SFR* 00000080H.7 DATA     BIT       P07
*SFR* 0000009AH   DATA     BYTE      P0CON
*SFR* 0000009BH   DATA     BYTE      P0PH
*SFR* 0000009CH   DATA     BYTE      P0VO
*SFR* 00000090H   DATA     BYTE      P1
*SFR* 00000090H   DATA     BIT       P10
*SFR* 00000090H.1 DATA     BIT       P11
*SFR* 00000090H.2 DATA     BIT       P12
*SFR* 00000090H.3 DATA     BIT       P13
*SFR* 00000090H.4 DATA     BIT       P14
*SFR* 00000090H.5 DATA     BIT       P15
*SFR* 00000090H.6 DATA     BIT       P16
*SFR* 00000090H.7 DATA     BIT       P17
*SFR* 00000091H   DATA     BYTE      P1CON
*SFR* 00000092H   DATA     BYTE      P1PH
*SFR* 000000A0H   DATA     BYTE      P2
*SFR* 000000A0H   DATA     BIT       P20
*SFR* 000000A0H.1 DATA     BIT       P21
*SFR* 000000A0H.2 DATA     BIT       P22
*SFR* 000000A0H.3 DATA     BIT       P23
*SFR* 000000A0H.4 DATA     BIT       P24
*SFR* 000000A0H.5 DATA     BIT       P25
*SFR* 000000A0H.6 DATA     BIT       P26
*SFR* 000000A0H.7 DATA     BIT       P27
*SFR* 000000A1H   DATA     BYTE      P2CON
*SFR* 000000A2H   DATA     BYTE      P2PH
*SFR* 000000D8H   DATA     BYTE      P5
*SFR* 000000D8H   DATA     BIT       P50
*SFR* 000000D8H.1 DATA     BIT       P51
*SFR* 000000D9H   DATA     BYTE      P5CON
*SFR* 000000DAH   DATA     BYTE      P5PH
      010018EEH   CODE     ---       PATMotorDutyCycleRegisterValueGet
      010018FFH   CODE     ---       PATMotorDutyGet
      010014E0H   CODE     ---       PATMotorTimeRun
*SFR* 00000087H   DATA     BYTE      PCON
      01001629H   CODE     ---       PowerButtonDebounce
      01001832H   CODE     ---       PowerButtonISRTrigged
      01000C33H   CODE     ---       PowerButtonProc
*SFR* 000000D0H   DATA     BYTE      PSW
      01001943H   CODE     ---       PWM_Init
      010018AAH   CODE     ---       PWM_Stop
*SFR* 000000D1H   DATA     BYTE      PWMCFG
*SFR* 000000D2H   DATA     BYTE      PWMCON
*SFR* 000000D5H   DATA     BYTE      PWMDTY0
*SFR* 000000D6H   DATA     BYTE      PWMDTY1
*SFR* 000000D7H   DATA     BYTE      PWMDTY2
*SFR* 000000D4H   DATA     BYTE      PWMDTYA
      01001944H   CODE     ---       PWMInt
*SFR* 000000D3H   DATA     BYTE      PWMPRD
*SFR* 00000098H.2 DATA     BIT       RB8
*SFR* 000000CBH   DATA     BYTE      RCAP2H
*SFR* 000000CAH   DATA     BYTE      RCAP2L
*SFR* 000000C8H.5 DATA     BIT       RCLK
*SFR* 00000098H.4 DATA     BIT       REN
*SFR* 00000098H   DATA     BIT       RI
*SFR* 000000D0H.3 DATA     BIT       RS0
*SFR* 000000D0H.4 DATA     BIT       RS1
*SFR* 00000099H   DATA     BYTE      SBUF
*SFR* 00000098H   DATA     BYTE      SCON
*SFR* 00000098H.7 DATA     BIT       SM0
*SFR* 00000098H.6 DATA     BIT       SM1
*SFR* 00000098H.5 DATA     BIT       SM2
LX51 LINKER/LOCATER V4.66.41.0                                                        03/10/2021  14:40:17  PAGE 14


*SFR* 00000081H   DATA     BYTE      SP
      01001948H   CONST    ---       stNtcResistanceTemperatureMap
*SFR* 000000C8H.1 DATA     BIT       T2
*SFR* 000000C8H   DATA     BYTE      T2CON
*SFR* 000000C9H   DATA     BYTE      T2MOD
*SFR* 00000098H.3 DATA     BIT       TB8
*SFR* 000000C8H.4 DATA     BIT       TCLK
*SFR* 00000088H   DATA     BYTE      TCON
      01001909H   CODE     ---       TemperatureOverStateGet
      010018B3H   CODE     ---       TemperatureValueGet
      01001417H   CODE     ---       TemperatureWarning
*SFR* 00000088H.5 DATA     BIT       TF0
*SFR* 00000088H.7 DATA     BIT       TF1
*SFR* 000000C8H.7 DATA     BIT       TF2
*SFR* 0000008CH   DATA     BYTE      TH0
*SFR* 0000008DH   DATA     BYTE      TH1
*SFR* 000000CDH   DATA     BYTE      TH2
*SFR* 00000098H.1 DATA     BIT       TI
      0100128CH   CODE     ---       timer0
      01001365H   CODE     ---       Timer2Int
      010015DFH   CODE     ---       Timer_Init
      010018E1H   CODE     ---       TimerUartReceive
*SFR* 0000008AH   DATA     BYTE      TL0
*SFR* 0000008BH   DATA     BYTE      TL1
*SFR* 000000CCH   DATA     BYTE      TL2
*SFR* 0000008EH   DATA     BYTE      TMCON
*SFR* 00000089H   DATA     BYTE      TMOD
      0100193EH   CODE     ---       TouchFunctionDisable
      0100193BH   CODE     ---       TouchFunctionEnable
      0100188DH   CODE     ---       TouchFunctionSwitch
*SFR* 00000088H.4 DATA     BIT       TR0
*SFR* 00000088H.6 DATA     BIT       TR1
*SFR* 000000C8H.2 DATA     BIT       TR2
      01001945H   CODE     ---       Uart0_Init
      01001922H   CODE     ---       UART_Stop
      01001946H   CODE     ---       UartInt
      00000020H.1 BIT      BIT       UartReceiveFlag
      01001947H   CODE     ---       UARTRxDataClear
      00000020H.0 BIT      BIT       UartSendFlag
      0200006FH   PDATA    BYTE      ucBatterySampleFiterCount
      0200009BH   PDATA    BYTE      ucPATDutyCycleCount
      0200009AH   PDATA    BYTE      ucVIBDutyCycleCount
      01001753H   CODE     ---       UpDownPressedLedBlink
      010018F4H   CODE     ---       VIBMotorDutyCycleRegisterValueGet
      01001904H   CODE     ---       VIBMotorDutyGet
      0100144EH   CODE     ---       VIBMotorLevelBackToLowWithCaseChange
      0100150FH   CODE     ---       VIBMotorTimeRun
      0100192BH   CODE     ---       WatchDogClear
      01001897H   CODE     ---       WatchDogInit
      0100186EH   CODE     ---       WatchDogStop
*SFR* 000000CFH   DATA     BYTE      WDTCON



SYMBOL TABLE OF MODULE:  Teslin (?C_STARTUP)

      VALUE       REP       CLASS    TYPE      SYMBOL NAME
      ====================================================
      ---         MODULE    ---      ---       ?C_STARTUP
      01000000H   PUBLIC    CODE     ---       ?C_STARTUP
      000000E0H   SYMBOL    DATA     ---       ACC
      000000F0H   SYMBOL    DATA     ---       B
      00000083H   SYMBOL    DATA     ---       DPH
      00000082H   SYMBOL    DATA     ---       DPL
      00000000H   SYMBOL    NUMBER   ---       IBPSTACK
LX51 LINKER/LOCATER V4.66.41.0                                                        03/10/2021  14:40:17  PAGE 15


      00000100H   SYMBOL    NUMBER   ---       IBPSTACKTOP
      00000100H   SYMBOL    NUMBER   ---       IDATALEN
      01000F93H   SYMBOL    CODE     ---       IDATALOOP
      00000000H   SYMBOL    NUMBER   ---       PBPSTACK
      00000100H   SYMBOL    NUMBER   ---       PBPSTACKTOP
      00000000H   SYMBOL    NUMBER   ---       PDATALEN
      00000000H   SYMBOL    NUMBER   ---       PDATASTART
      00000000H   SYMBOL    NUMBER   ---       PPAGE
      00000000H   SYMBOL    NUMBER   ---       PPAGEENABLE
      000000A0H   SYMBOL    DATA     ---       PPAGE_SFR
      00000081H   SYMBOL    DATA     ---       SP
      01000F90H   SYMBOL    CODE     ---       STARTUP1
      00000000H   SYMBOL    NUMBER   ---       XBPSTACK
      00000000H   SYMBOL    NUMBER   ---       XBPSTACKTOP
      00000100H   SYMBOL    NUMBER   ---       XDATALEN
      01000F9EH   SYMBOL    CODE     ---       XDATALOOP
      00000000H   SYMBOL    NUMBER   ---       XDATASTART
      01000000H   LINE      CODE     ---       #126
      01000F90H   LINE      CODE     ---       #133
      01000F92H   LINE      CODE     ---       #134
      01000F93H   LINE      CODE     ---       #135
      01000F94H   LINE      CODE     ---       #136
      01000F96H   LINE      CODE     ---       #140
      01000F99H   LINE      CODE     ---       #141
      01000F9BH   LINE      CODE     ---       #145
      01000F9DH   LINE      CODE     ---       #147
      01000F9EH   LINE      CODE     ---       #148
      01000F9FH   LINE      CODE     ---       #149
      01000FA0H   LINE      CODE     ---       #150
      01000FA2H   LINE      CODE     ---       #151
      01000FA4H   LINE      CODE     ---       #185
      01000FA7H   LINE      CODE     ---       #196

      ---         MODULE    ---      ---       MAIN
      010016CCH   PUBLIC    CODE     ---       main
      000000FFH   SFRSYM    DATA     BYTE      OPREG
      00000080H   SFRSYM    DATA     BYTE      P0
      00000090H   SFRSYM    DATA     BYTE      P1
      000000A0H   SFRSYM    DATA     BYTE      P2
      000000A8H.4 SFRSYM    DATA     BIT       EUART
      0000008EH   SFRSYM    DATA     BYTE      TMCON
      000000D0H.6 SFRSYM    DATA     BIT       AC
      0000008FH   SFRSYM    DATA     BYTE      OTCON
      000000D8H   SFRSYM    DATA     BYTE      P5
      000000A8H.7 SFRSYM    DATA     BIT       EA
      000000C8H.1 SFRSYM    DATA     BIT       T2
      000000A8H.6 SFRSYM    DATA     BIT       EADC
      000000A8H   SFRSYM    DATA     BYTE      IE
      000000FEH   SFRSYM    DATA     BYTE      OPINX
      000000C8H   SFRSYM    DATA     BIT       CP
      000000C8H.6 SFRSYM    DATA     BIT       EXF2
      000000D5H   SFRSYM    DATA     BYTE      PWMDTY0
      000000D6H   SFRSYM    DATA     BYTE      PWMDTY1
      0000009BH   SFRSYM    DATA     BYTE      P0PH
      000000B8H   SFRSYM    DATA     BYTE      IP
      000000D7H   SFRSYM    DATA     BYTE      PWMDTY2
      00000092H   SFRSYM    DATA     BYTE      P1PH
      00000098H   SFRSYM    DATA     BIT       RI
      000000A2H   SFRSYM    DATA     BYTE      P2PH
      000000D0H.7 SFRSYM    DATA     BIT       CY
      00000098H.1 SFRSYM    DATA     BIT       TI
      000000B8H.1 SFRSYM    DATA     BIT       IPT0
      000000DAH   SFRSYM    DATA     BYTE      P5PH
      000000B8H.3 SFRSYM    DATA     BIT       IPT1
      000000B8H.5 SFRSYM    DATA     BIT       IPT2
LX51 LINKER/LOCATER V4.66.41.0                                                        03/10/2021  14:40:17  PAGE 16


      000000CBH   SFRSYM    DATA     BYTE      RCAP2H
      00000081H   SFRSYM    DATA     BYTE      SP
      000000D0H.2 SFRSYM    DATA     BIT       OV
      000000F4H   SFRSYM    DATA     BYTE      IAPADE
      0000009CH   SFRSYM    DATA     BYTE      P0VO
      000000CAH   SFRSYM    DATA     BYTE      RCAP2L
      000000F3H   SFRSYM    DATA     BYTE      IAPADH
      000000D4H   SFRSYM    DATA     BYTE      PWMDTYA
      000000ADH   SFRSYM    DATA     BYTE      ADCCON
      000000C8H.5 SFRSYM    DATA     BIT       RCLK
      000000F2H   SFRSYM    DATA     BYTE      IAPADL
      000000C8H.4 SFRSYM    DATA     BIT       TCLK
      00000080H   SFRSYM    DATA     BIT       P00
      00000090H   SFRSYM    DATA     BIT       P10
      00000080H.1 SFRSYM    DATA     BIT       P01
      00000099H   SFRSYM    DATA     BYTE      SBUF
      00000087H   SFRSYM    DATA     BYTE      PCON
      000000A0H   SFRSYM    DATA     BIT       P20
      00000090H.1 SFRSYM    DATA     BIT       P11
      00000080H.2 SFRSYM    DATA     BIT       P02
      000000A0H.1 SFRSYM    DATA     BIT       P21
      00000090H.2 SFRSYM    DATA     BIT       P12
      00000080H.3 SFRSYM    DATA     BIT       P03
      000000A0H.2 SFRSYM    DATA     BIT       P22
      00000090H.3 SFRSYM    DATA     BIT       P13
      00000080H.4 SFRSYM    DATA     BIT       P04
      00000098H   SFRSYM    DATA     BYTE      SCON
      000000D8H   SFRSYM    DATA     BIT       P50
      000000A0H.3 SFRSYM    DATA     BIT       P23
      00000090H.4 SFRSYM    DATA     BIT       P14
      00000080H.5 SFRSYM    DATA     BIT       P05
      000000F5H   SFRSYM    DATA     BYTE      IAPDAT
      00000088H   SFRSYM    DATA     BYTE      TCON
      00000089H   SFRSYM    DATA     BYTE      TMOD
      000000D8H.1 SFRSYM    DATA     BIT       P51
      000000A0H.4 SFRSYM    DATA     BIT       P24
      00000090H.5 SFRSYM    DATA     BIT       P15
      00000080H.6 SFRSYM    DATA     BIT       P06
      000000B8H   SFRSYM    DATA     BIT       IPINT0
      000000A0H.5 SFRSYM    DATA     BIT       P25
      00000090H.6 SFRSYM    DATA     BIT       P16
      00000080H.7 SFRSYM    DATA     BIT       P07
      000000B8H.2 SFRSYM    DATA     BIT       IPINT1
      000000A0H.6 SFRSYM    DATA     BIT       P26
      00000090H.7 SFRSYM    DATA     BIT       P17
      000000A0H.7 SFRSYM    DATA     BIT       P27
      000000F6H   SFRSYM    DATA     BYTE      IAPCTL
      000000A9H   SFRSYM    DATA     BYTE      IE1
      000000F0H   SFRSYM    DATA     BYTE      B
      00000097H   SFRSYM    DATA     BYTE      IOHCON
      000000F1H   SFRSYM    DATA     BYTE      IAPKEY
      000000CEH   SFRSYM    DATA     BYTE      BTMCON
      000000D1H   SFRSYM    DATA     BYTE      PWMCFG
      000000E0H   SFRSYM    DATA     BYTE      ACC
      000000A8H.1 SFRSYM    DATA     BIT       ET0
      00000088H.5 SFRSYM    DATA     BIT       TF0
      000000A8H.3 SFRSYM    DATA     BIT       ET1
      000000ABH   SFRSYM    DATA     BYTE      ADCCFG0
      000000B9H   SFRSYM    DATA     BYTE      IP1
      00000088H.7 SFRSYM    DATA     BIT       TF1
      000000A8H.5 SFRSYM    DATA     BIT       ET2
      000000ACH   SFRSYM    DATA     BYTE      ADCCFG1
      00000098H.2 SFRSYM    DATA     BIT       RB8
      000000C8H.7 SFRSYM    DATA     BIT       TF2
      0000008CH   SFRSYM    DATA     BYTE      TH0
LX51 LINKER/LOCATER V4.66.41.0                                                        03/10/2021  14:40:17  PAGE 17


      0000008DH   SFRSYM    DATA     BYTE      TH1
      00000098H.3 SFRSYM    DATA     BIT       TB8
      000000CDH   SFRSYM    DATA     BYTE      TH2
      000000D0H   SFRSYM    DATA     BIT       P
      00000098H.7 SFRSYM    DATA     BIT       SM0
      0000008AH   SFRSYM    DATA     BYTE      TL0
      00000098H.6 SFRSYM    DATA     BIT       SM1
      000000CFH   SFRSYM    DATA     BYTE      WDTCON
      0000008BH   SFRSYM    DATA     BYTE      TL1
      00000098H.5 SFRSYM    DATA     BIT       SM2
      000000CCH   SFRSYM    DATA     BYTE      TL2
      000000D0H.3 SFRSYM    DATA     BIT       RS0
      00000088H.4 SFRSYM    DATA     BIT       TR0
      000000D0H.4 SFRSYM    DATA     BIT       RS1
      000000D2H   SFRSYM    DATA     BYTE      PWMCON
      00000088H.6 SFRSYM    DATA     BIT       TR1
      000000B8H.4 SFRSYM    DATA     BIT       IPUART
      000000C8H.2 SFRSYM    DATA     BIT       TR2
      000000D3H   SFRSYM    DATA     BYTE      PWMPRD
      00000083H   SFRSYM    DATA     BYTE      DPH
      00000082H   SFRSYM    DATA     BYTE      DPL
      000000A8H   SFRSYM    DATA     BIT       EINT0
      0000009AH   SFRSYM    DATA     BYTE      P0CON
      000000A8H.2 SFRSYM    DATA     BIT       EINT1
      000000B8H.6 SFRSYM    DATA     BIT       IPADC
      000000BAH   SFRSYM    DATA     BYTE      INT0F
      00000091H   SFRSYM    DATA     BYTE      P1CON
      000000C8H.3 SFRSYM    DATA     BIT       EXEN2
      000000BCH   SFRSYM    DATA     BYTE      INT1F
      000000A1H   SFRSYM    DATA     BYTE      P2CON
      000000C6H   SFRSYM    DATA     BYTE      INT2F
      00000098H.4 SFRSYM    DATA     BIT       REN
      000000D9H   SFRSYM    DATA     BYTE      P5CON
      000000AFH   SFRSYM    DATA     BYTE      ADCVH
      000000C9H   SFRSYM    DATA     BYTE      T2MOD
      000000C8H   SFRSYM    DATA     BYTE      T2CON
      000000AEH   SFRSYM    DATA     BYTE      ADCVL
      000000BBH   SFRSYM    DATA     BYTE      INT0R
      000000BDH   SFRSYM    DATA     BYTE      INT1R
      000000C7H   SFRSYM    DATA     BYTE      INT2R
      000000D0H.5 SFRSYM    DATA     BIT       F0
      000000D0H.1 SFRSYM    DATA     BIT       F1
      000000D0H   SFRSYM    DATA     BYTE      PSW

      010016CCH   BLOCK     CODE     ---       LVL=0
      010016CCH   LINE      CODE     ---       #24
      010016CCH   LINE      CODE     ---       #25
      010016CCH   LINE      CODE     ---       #26
      010016CFH   LINE      CODE     ---       #27
      010016D2H   LINE      CODE     ---       #29
      010016D5H   LINE      CODE     ---       #30
      010016D8H   LINE      CODE     ---       #32
      010016D8H   LINE      CODE     ---       #33
      010016D8H   LINE      CODE     ---       #39
      010016DBH   LINE      CODE     ---       #40
      010016DEH   LINE      CODE     ---       #41
      010016E1H   LINE      CODE     ---       #42
      010016E4H   LINE      CODE     ---       #43
      010016E7H   LINE      CODE     ---       #46
      ---         BLOCKEND  ---      ---       LVL=0

      ---         MODULE    ---      ---       EX_INIT
      01001942H   PUBLIC    CODE     ---       EX2
      01001941H   PUBLIC    CODE     ---       EX1
      010013A5H   PUBLIC    CODE     ---       EX0
LX51 LINKER/LOCATER V4.66.41.0                                                        03/10/2021  14:40:17  PAGE 18


      01001814H   PUBLIC    CODE     ---       EX_Init
      000000FFH   SFRSYM    DATA     BYTE      OPREG
      00000080H   SFRSYM    DATA     BYTE      P0
      00000090H   SFRSYM    DATA     BYTE      P1
      000000A0H   SFRSYM    DATA     BYTE      P2
      000000A8H.4 SFRSYM    DATA     BIT       EUART
      0000008EH   SFRSYM    DATA     BYTE      TMCON
      000000D0H.6 SFRSYM    DATA     BIT       AC
      0000008FH   SFRSYM    DATA     BYTE      OTCON
      000000D8H   SFRSYM    DATA     BYTE      P5
      000000A8H.7 SFRSYM    DATA     BIT       EA
      000000C8H.1 SFRSYM    DATA     BIT       T2
      000000A8H.6 SFRSYM    DATA     BIT       EADC
      000000A8H   SFRSYM    DATA     BYTE      IE
      000000FEH   SFRSYM    DATA     BYTE      OPINX
      000000C8H   SFRSYM    DATA     BIT       CP
      000000C8H.6 SFRSYM    DATA     BIT       EXF2
      000000D5H   SFRSYM    DATA     BYTE      PWMDTY0
      000000D6H   SFRSYM    DATA     BYTE      PWMDTY1
      0000009BH   SFRSYM    DATA     BYTE      P0PH
      000000B8H   SFRSYM    DATA     BYTE      IP
      000000D7H   SFRSYM    DATA     BYTE      PWMDTY2
      00000092H   SFRSYM    DATA     BYTE      P1PH
      00000098H   SFRSYM    DATA     BIT       RI
      000000A2H   SFRSYM    DATA     BYTE      P2PH
      000000D0H.7 SFRSYM    DATA     BIT       CY
      00000098H.1 SFRSYM    DATA     BIT       TI
      000000B8H.1 SFRSYM    DATA     BIT       IPT0
      000000DAH   SFRSYM    DATA     BYTE      P5PH
      000000B8H.3 SFRSYM    DATA     BIT       IPT1
      000000B8H.5 SFRSYM    DATA     BIT       IPT2
      000000CBH   SFRSYM    DATA     BYTE      RCAP2H
      00000081H   SFRSYM    DATA     BYTE      SP
      000000D0H.2 SFRSYM    DATA     BIT       OV
      000000F4H   SFRSYM    DATA     BYTE      IAPADE
      0000009CH   SFRSYM    DATA     BYTE      P0VO
      000000CAH   SFRSYM    DATA     BYTE      RCAP2L
      000000F3H   SFRSYM    DATA     BYTE      IAPADH
      000000D4H   SFRSYM    DATA     BYTE      PWMDTYA
      000000ADH   SFRSYM    DATA     BYTE      ADCCON
      000000C8H.5 SFRSYM    DATA     BIT       RCLK
      000000F2H   SFRSYM    DATA     BYTE      IAPADL
      000000C8H.4 SFRSYM    DATA     BIT       TCLK
      00000080H   SFRSYM    DATA     BIT       P00
      00000090H   SFRSYM    DATA     BIT       P10
      00000080H.1 SFRSYM    DATA     BIT       P01
      00000099H   SFRSYM    DATA     BYTE      SBUF
      00000087H   SFRSYM    DATA     BYTE      PCON
      000000A0H   SFRSYM    DATA     BIT       P20
      00000090H.1 SFRSYM    DATA     BIT       P11
      00000080H.2 SFRSYM    DATA     BIT       P02
      000000A0H.1 SFRSYM    DATA     BIT       P21
      00000090H.2 SFRSYM    DATA     BIT       P12
      00000080H.3 SFRSYM    DATA     BIT       P03
      000000A0H.2 SFRSYM    DATA     BIT       P22
      00000090H.3 SFRSYM    DATA     BIT       P13
      00000080H.4 SFRSYM    DATA     BIT       P04
      00000098H   SFRSYM    DATA     BYTE      SCON
      000000D8H   SFRSYM    DATA     BIT       P50
      000000A0H.3 SFRSYM    DATA     BIT       P23
      00000090H.4 SFRSYM    DATA     BIT       P14
      00000080H.5 SFRSYM    DATA     BIT       P05
      000000F5H   SFRSYM    DATA     BYTE      IAPDAT
      00000088H   SFRSYM    DATA     BYTE      TCON
      00000089H   SFRSYM    DATA     BYTE      TMOD
LX51 LINKER/LOCATER V4.66.41.0                                                        03/10/2021  14:40:17  PAGE 19


      000000D8H.1 SFRSYM    DATA     BIT       P51
      000000A0H.4 SFRSYM    DATA     BIT       P24
      00000090H.5 SFRSYM    DATA     BIT       P15
      00000080H.6 SFRSYM    DATA     BIT       P06
      000000B8H   SFRSYM    DATA     BIT       IPINT0
      000000A0H.5 SFRSYM    DATA     BIT       P25
      00000090H.6 SFRSYM    DATA     BIT       P16
      00000080H.7 SFRSYM    DATA     BIT       P07
      000000B8H.2 SFRSYM    DATA     BIT       IPINT1
      000000A0H.6 SFRSYM    DATA     BIT       P26
      00000090H.7 SFRSYM    DATA     BIT       P17
      000000A0H.7 SFRSYM    DATA     BIT       P27
      000000F6H   SFRSYM    DATA     BYTE      IAPCTL
      000000A9H   SFRSYM    DATA     BYTE      IE1
      000000F0H   SFRSYM    DATA     BYTE      B
      00000097H   SFRSYM    DATA     BYTE      IOHCON
      000000F1H   SFRSYM    DATA     BYTE      IAPKEY
      000000CEH   SFRSYM    DATA     BYTE      BTMCON
      000000D1H   SFRSYM    DATA     BYTE      PWMCFG
      000000E0H   SFRSYM    DATA     BYTE      ACC
      000000A8H.1 SFRSYM    DATA     BIT       ET0
      00000088H.5 SFRSYM    DATA     BIT       TF0
      000000A8H.3 SFRSYM    DATA     BIT       ET1
      000000ABH   SFRSYM    DATA     BYTE      ADCCFG0
      000000B9H   SFRSYM    DATA     BYTE      IP1
      00000088H.7 SFRSYM    DATA     BIT       TF1
      000000A8H.5 SFRSYM    DATA     BIT       ET2
      000000ACH   SFRSYM    DATA     BYTE      ADCCFG1
      00000098H.2 SFRSYM    DATA     BIT       RB8
      000000C8H.7 SFRSYM    DATA     BIT       TF2
      0000008CH   SFRSYM    DATA     BYTE      TH0
      0000008DH   SFRSYM    DATA     BYTE      TH1
      00000098H.3 SFRSYM    DATA     BIT       TB8
      000000CDH   SFRSYM    DATA     BYTE      TH2
      000000D0H   SFRSYM    DATA     BIT       P
      00000098H.7 SFRSYM    DATA     BIT       SM0
      0000008AH   SFRSYM    DATA     BYTE      TL0
      00000098H.6 SFRSYM    DATA     BIT       SM1
      000000CFH   SFRSYM    DATA     BYTE      WDTCON
      0000008BH   SFRSYM    DATA     BYTE      TL1
      00000098H.5 SFRSYM    DATA     BIT       SM2
      000000CCH   SFRSYM    DATA     BYTE      TL2
      000000D0H.3 SFRSYM    DATA     BIT       RS0
      00000088H.4 SFRSYM    DATA     BIT       TR0
      000000D0H.4 SFRSYM    DATA     BIT       RS1
      000000D2H   SFRSYM    DATA     BYTE      PWMCON
      00000088H.6 SFRSYM    DATA     BIT       TR1
      000000B8H.4 SFRSYM    DATA     BIT       IPUART
      000000C8H.2 SFRSYM    DATA     BIT       TR2
      000000D3H   SFRSYM    DATA     BYTE      PWMPRD
      00000083H   SFRSYM    DATA     BYTE      DPH
      00000082H   SFRSYM    DATA     BYTE      DPL
      000000A8H   SFRSYM    DATA     BIT       EINT0
      0000009AH   SFRSYM    DATA     BYTE      P0CON
      000000A8H.2 SFRSYM    DATA     BIT       EINT1
      000000B8H.6 SFRSYM    DATA     BIT       IPADC
      000000BAH   SFRSYM    DATA     BYTE      INT0F
      00000091H   SFRSYM    DATA     BYTE      P1CON
      000000C8H.3 SFRSYM    DATA     BIT       EXEN2
      000000BCH   SFRSYM    DATA     BYTE      INT1F
      000000A1H   SFRSYM    DATA     BYTE      P2CON
      000000C6H   SFRSYM    DATA     BYTE      INT2F
      00000098H.4 SFRSYM    DATA     BIT       REN
      000000D9H   SFRSYM    DATA     BYTE      P5CON
      000000AFH   SFRSYM    DATA     BYTE      ADCVH
LX51 LINKER/LOCATER V4.66.41.0                                                        03/10/2021  14:40:17  PAGE 20


      000000C9H   SFRSYM    DATA     BYTE      T2MOD
      000000C8H   SFRSYM    DATA     BYTE      T2CON
      000000AEH   SFRSYM    DATA     BYTE      ADCVL
      000000BBH   SFRSYM    DATA     BYTE      INT0R
      000000BDH   SFRSYM    DATA     BYTE      INT1R
      000000C7H   SFRSYM    DATA     BYTE      INT2R
      000000D0H.5 SFRSYM    DATA     BIT       F0
      000000D0H.1 SFRSYM    DATA     BIT       F1
      000000D0H   SFRSYM    DATA     BYTE      PSW

      01001814H   BLOCK     CODE     ---       LVL=0
      01001814H   LINE      CODE     ---       #33
      01001814H   LINE      CODE     ---       #34
      01001814H   LINE      CODE     ---       #43
      01001817H   LINE      CODE     ---       #48
      0100181AH   LINE      CODE     ---       #59
      0100181DH   LINE      CODE     ---       #60
      01001820H   LINE      CODE     ---       #65
      01001820H   LINE      CODE     ---       #66
      01001820H   LINE      CODE     ---       #69
      01001822H   LINE      CODE     ---       #70
      ---         BLOCKEND  ---      ---       LVL=0

      010013A5H   BLOCK     CODE     ---       LVL=0
      010013A5H   LINE      CODE     ---       #80
      010013C2H   LINE      CODE     ---       #82
      010013C5H   LINE      CODE     ---       #83
      ---         BLOCKEND  ---      ---       LVL=0

      01001941H   BLOCK     CODE     ---       LVL=0
      01001941H   LINE      CODE     ---       #85
      01001941H   LINE      CODE     ---       #88
      ---         BLOCKEND  ---      ---       LVL=0

      01001942H   BLOCK     CODE     ---       LVL=0
      01001942H   LINE      CODE     ---       #90
      01001942H   LINE      CODE     ---       #101
      ---         BLOCKEND  ---      ---       LVL=0

      ---         MODULE    ---      ---       HAL_BUTTON
      0200002DH   PUBLIC    PDATA    ---       g_astExerciseLevelMap
      02000019H   PUBLIC    PDATA    ---       g_astPWMDutyMap
      0100147FH   PUBLIC    CODE     ---       DeviceOff
      010017E0H   PUBLIC    CODE     ---       ButtonTriggerParamClear
      01001840H   PUBLIC    CODE     ---       MotorSmoothStepClear
      01001739H   PUBLIC    CODE     ---       MotorStop
      01001904H   PUBLIC    CODE     ---       VIBMotorDutyGet
      010018FFH   PUBLIC    CODE     ---       PATMotorDutyGet
      01000E53H   PUBLIC    CODE     ---       MotorSmoothUpdate
      0100166FH   PUBLIC    CODE     ---       MotorSmoothUpdateEnable
      010018FAH   PUBLIC    CODE     ---       IsMotorIndicateProcess
      0100144EH   PUBLIC    CODE     ---       VIBMotorLevelBackToLowWithCaseChange
      01000A58H   PUBLIC    CODE     ---       _IsPlusMinusFunctionLedFlashValid
      010013E0H   PUBLIC    CODE     ---       ButtonPressedLongMinusProcess
      0100117CH   PUBLIC    CODE     ---       MotorThreePlusIndication
      01001114H   PUBLIC    CODE     ---       ButtonPressedMinusProcess
      010010ACH   PUBLIC    CODE     ---       ButtonPressedPlusProcess
      010007A8H   PUBLIC    CODE     ---       ButtonBoardsProc
      0100171FH   PUBLIC    CODE     ---       _IsButtonBoardsPressed
      01001569H   PUBLIC    CODE     ---       ButtonBoardsCount
      0100102AH   PUBLIC    CODE     ---       ButtonBoardsCheck
      01000C33H   PUBLIC    CODE     ---       PowerButtonProc
      0100164CH   PUBLIC    CODE     ---       IsButtonPressed
      01001832H   PUBLIC    CODE     ---       PowerButtonISRTrigged
      01001629H   PUBLIC    CODE     ---       PowerButtonDebounce
LX51 LINKER/LOCATER V4.66.41.0                                                        03/10/2021  14:40:17  PAGE 21


      0100184DH   PUBLIC    CODE     ---       IsPowerButtonPressed
      01001879H   PUBLIC    CODE     ---       ButtonPhysicalStateGet
      000000FFH   SFRSYM    DATA     BYTE      OPREG
      00000080H   SFRSYM    DATA     BYTE      P0
      00000090H   SFRSYM    DATA     BYTE      P1
      000000A0H   SFRSYM    DATA     BYTE      P2
      000000A8H.4 SFRSYM    DATA     BIT       EUART
      0000008EH   SFRSYM    DATA     BYTE      TMCON
      000000D0H.6 SFRSYM    DATA     BIT       AC
      0000008FH   SFRSYM    DATA     BYTE      OTCON
      000000D8H   SFRSYM    DATA     BYTE      P5
      000000A8H.7 SFRSYM    DATA     BIT       EA
      000000C8H.1 SFRSYM    DATA     BIT       T2
      000000A8H.6 SFRSYM    DATA     BIT       EADC
      000000A8H   SFRSYM    DATA     BYTE      IE
      000000FEH   SFRSYM    DATA     BYTE      OPINX
      000000C8H   SFRSYM    DATA     BIT       CP
      000000C8H.6 SFRSYM    DATA     BIT       EXF2
      000000D5H   SFRSYM    DATA     BYTE      PWMDTY0
      000000D6H   SFRSYM    DATA     BYTE      PWMDTY1
      0000009BH   SFRSYM    DATA     BYTE      P0PH
      000000B8H   SFRSYM    DATA     BYTE      IP
      000000D7H   SFRSYM    DATA     BYTE      PWMDTY2
      00000092H   SFRSYM    DATA     BYTE      P1PH
      00000098H   SFRSYM    DATA     BIT       RI
      000000A2H   SFRSYM    DATA     BYTE      P2PH
      000000D0H.7 SFRSYM    DATA     BIT       CY
      00000098H.1 SFRSYM    DATA     BIT       TI
      000000B8H.1 SFRSYM    DATA     BIT       IPT0
      000000DAH   SFRSYM    DATA     BYTE      P5PH
      000000B8H.3 SFRSYM    DATA     BIT       IPT1
      000000B8H.5 SFRSYM    DATA     BIT       IPT2
      000000CBH   SFRSYM    DATA     BYTE      RCAP2H
      00000081H   SFRSYM    DATA     BYTE      SP
      000000D0H.2 SFRSYM    DATA     BIT       OV
      000000F4H   SFRSYM    DATA     BYTE      IAPADE
      0000009CH   SFRSYM    DATA     BYTE      P0VO
      000000CAH   SFRSYM    DATA     BYTE      RCAP2L
      000000F3H   SFRSYM    DATA     BYTE      IAPADH
      000000D4H   SFRSYM    DATA     BYTE      PWMDTYA
      000000ADH   SFRSYM    DATA     BYTE      ADCCON
      000000C8H.5 SFRSYM    DATA     BIT       RCLK
      000000F2H   SFRSYM    DATA     BYTE      IAPADL
      000000C8H.4 SFRSYM    DATA     BIT       TCLK
      00000080H   SFRSYM    DATA     BIT       P00
      00000090H   SFRSYM    DATA     BIT       P10
      00000080H.1 SFRSYM    DATA     BIT       P01
      00000099H   SFRSYM    DATA     BYTE      SBUF
      00000087H   SFRSYM    DATA     BYTE      PCON
      000000A0H   SFRSYM    DATA     BIT       P20
      00000090H.1 SFRSYM    DATA     BIT       P11
      00000080H.2 SFRSYM    DATA     BIT       P02
      000000A0H.1 SFRSYM    DATA     BIT       P21
      00000090H.2 SFRSYM    DATA     BIT       P12
      00000080H.3 SFRSYM    DATA     BIT       P03
      000000A0H.2 SFRSYM    DATA     BIT       P22
      00000090H.3 SFRSYM    DATA     BIT       P13
      00000080H.4 SFRSYM    DATA     BIT       P04
      00000098H   SFRSYM    DATA     BYTE      SCON
      000000D8H   SFRSYM    DATA     BIT       P50
      000000A0H.3 SFRSYM    DATA     BIT       P23
      00000090H.4 SFRSYM    DATA     BIT       P14
      00000080H.5 SFRSYM    DATA     BIT       P05
      000000F5H   SFRSYM    DATA     BYTE      IAPDAT
      00000088H   SFRSYM    DATA     BYTE      TCON
LX51 LINKER/LOCATER V4.66.41.0                                                        03/10/2021  14:40:17  PAGE 22


      00000089H   SFRSYM    DATA     BYTE      TMOD
      000000D8H.1 SFRSYM    DATA     BIT       P51
      000000A0H.4 SFRSYM    DATA     BIT       P24
      00000090H.5 SFRSYM    DATA     BIT       P15
      00000080H.6 SFRSYM    DATA     BIT       P06
      000000B8H   SFRSYM    DATA     BIT       IPINT0
      000000A0H.5 SFRSYM    DATA     BIT       P25
      00000090H.6 SFRSYM    DATA     BIT       P16
      00000080H.7 SFRSYM    DATA     BIT       P07
      000000B8H.2 SFRSYM    DATA     BIT       IPINT1
      000000A0H.6 SFRSYM    DATA     BIT       P26
      00000090H.7 SFRSYM    DATA     BIT       P17
      000000A0H.7 SFRSYM    DATA     BIT       P27
      000000F6H   SFRSYM    DATA     BYTE      IAPCTL
      000000A9H   SFRSYM    DATA     BYTE      IE1
      000000F0H   SFRSYM    DATA     BYTE      B
      00000097H   SFRSYM    DATA     BYTE      IOHCON
      000000F1H   SFRSYM    DATA     BYTE      IAPKEY
      000000CEH   SFRSYM    DATA     BYTE      BTMCON
      000000D1H   SFRSYM    DATA     BYTE      PWMCFG
      000000E0H   SFRSYM    DATA     BYTE      ACC
      000000A8H.1 SFRSYM    DATA     BIT       ET0
      00000088H.5 SFRSYM    DATA     BIT       TF0
      000000A8H.3 SFRSYM    DATA     BIT       ET1
      000000ABH   SFRSYM    DATA     BYTE      ADCCFG0
      000000B9H   SFRSYM    DATA     BYTE      IP1
      00000088H.7 SFRSYM    DATA     BIT       TF1
      000000A8H.5 SFRSYM    DATA     BIT       ET2
      000000ACH   SFRSYM    DATA     BYTE      ADCCFG1
      00000098H.2 SFRSYM    DATA     BIT       RB8
      000000C8H.7 SFRSYM    DATA     BIT       TF2
      0000008CH   SFRSYM    DATA     BYTE      TH0
      0000008DH   SFRSYM    DATA     BYTE      TH1
      00000098H.3 SFRSYM    DATA     BIT       TB8
      000000CDH   SFRSYM    DATA     BYTE      TH2
      000000D0H   SFRSYM    DATA     BIT       P
      00000098H.7 SFRSYM    DATA     BIT       SM0
      0000008AH   SFRSYM    DATA     BYTE      TL0
      00000098H.6 SFRSYM    DATA     BIT       SM1
      000000CFH   SFRSYM    DATA     BYTE      WDTCON
      0000008BH   SFRSYM    DATA     BYTE      TL1
      00000098H.5 SFRSYM    DATA     BIT       SM2
      000000CCH   SFRSYM    DATA     BYTE      TL2
      000000D0H.3 SFRSYM    DATA     BIT       RS0
      00000088H.4 SFRSYM    DATA     BIT       TR0
      000000D0H.4 SFRSYM    DATA     BIT       RS1
      000000D2H   SFRSYM    DATA     BYTE      PWMCON
      00000088H.6 SFRSYM    DATA     BIT       TR1
      000000B8H.4 SFRSYM    DATA     BIT       IPUART
      000000C8H.2 SFRSYM    DATA     BIT       TR2
      000000D3H   SFRSYM    DATA     BYTE      PWMPRD
      00000083H   SFRSYM    DATA     BYTE      DPH
      00000082H   SFRSYM    DATA     BYTE      DPL
      000000A8H   SFRSYM    DATA     BIT       EINT0
      0000009AH   SFRSYM    DATA     BYTE      P0CON
      000000A8H.2 SFRSYM    DATA     BIT       EINT1
      000000B8H.6 SFRSYM    DATA     BIT       IPADC
      000000BAH   SFRSYM    DATA     BYTE      INT0F
      00000091H   SFRSYM    DATA     BYTE      P1CON
      000000C8H.3 SFRSYM    DATA     BIT       EXEN2
      000000BCH   SFRSYM    DATA     BYTE      INT1F
      000000A1H   SFRSYM    DATA     BYTE      P2CON
      000000C6H   SFRSYM    DATA     BYTE      INT2F
      00000098H.4 SFRSYM    DATA     BIT       REN
      000000D9H   SFRSYM    DATA     BYTE      P5CON
LX51 LINKER/LOCATER V4.66.41.0                                                        03/10/2021  14:40:17  PAGE 23


      000000AFH   SFRSYM    DATA     BYTE      ADCVH
      000000C9H   SFRSYM    DATA     BYTE      T2MOD
      000000C8H   SFRSYM    DATA     BYTE      T2CON
      000000AEH   SFRSYM    DATA     BYTE      ADCVL
      000000BBH   SFRSYM    DATA     BYTE      INT0R
      000000BDH   SFRSYM    DATA     BYTE      INT1R
      000000C7H   SFRSYM    DATA     BYTE      INT2R
      000000D0H.5 SFRSYM    DATA     BIT       F0
      000000D0H.1 SFRSYM    DATA     BIT       F1
      000000D0H   SFRSYM    DATA     BYTE      PSW
      02000002H   SYMBOL    PDATA    BYTE      ucMotorIndicateNumber
      02000003H   SYMBOL    PDATA    CHAR      boPowerButtonReleased
      02000004H   SYMBOL    PDATA    CHAR      boEnableMotorSmoothUpdate
      02000005H   SYMBOL    PDATA    CHAR      boPowerButtonISRTrigged
      02000006H   SYMBOL    PDATA    ---       ucButtonBoardPressed
      0200000DH   SYMBOL    PDATA    BYTE      ucMotorIndicateCount
      0200000EH   SYMBOL    PDATA    WORD      usButtonBoardDuration
      02000010H   SYMBOL    PDATA    BYTE      ucMotorExerciseLevel
      02000011H   SYMBOL    PDATA    BYTE      ucMotorChangePeriodCount
      02000012H   SYMBOL    PDATA    CHAR      boStopRegisterClear
      02000013H   SYMBOL    PDATA    CHAR      boButtonBoardStartSample
      02000014H   SYMBOL    PDATA    BYTE      ucVIBCurrentDutyCycle
      02000015H   SYMBOL    PDATA    BYTE      ucPATCurrentDutyCycle
      02000016H   SYMBOL    PDATA    WORD      usPowerButtonDuration
      02000018H   SYMBOL    PDATA    BYTE      ucVIBPWMDutyCycle
      02000025H   SYMBOL    PDATA    BYTE      ucPATPWMDutyCycle
      02000026H   SYMBOL    PDATA    ---       ucIsButtonBoardEventTrigged
      02000047H   SYMBOL    PDATA    BYTE      ucVIBMotorStep
      02000048H   SYMBOL    PDATA    CHAR      boIsPowerButtonValidPressed
      02000049H   SYMBOL    PDATA    CHAR      boMotorIndicated
      0200004AH   SYMBOL    PDATA    WORD      usPowerButtonReleasedDuration
      0200004CH   SYMBOL    PDATA    BYTE      ucPATMotorStep

      01001879H   BLOCK     CODE     ---       LVL=0
      01001879H   BLOCK     CODE     NEAR LAB  LVL=1
      00000007H   SYMBOL    DATA     BYTE      enButtonStatus
      ---         BLOCKEND  ---      ---       LVL=1
      01001879H   LINE      CODE     ---       #97
      01001879H   LINE      CODE     ---       #98
      01001879H   LINE      CODE     ---       #99
      01001879H   LINE      CODE     ---       #101
      0100187CH   LINE      CODE     ---       #102
      0100187CH   LINE      CODE     ---       #104
      0100187EH   LINE      CODE     ---       #105
      01001880H   LINE      CODE     ---       #107
      01001880H   LINE      CODE     ---       #108
      01001882H   LINE      CODE     ---       #110
      01001882H   LINE      CODE     ---       #112
      01001882H   LINE      CODE     ---       #113
      ---         BLOCKEND  ---      ---       LVL=0

      0100184DH   BLOCK     CODE     ---       LVL=0
      0100184DH   LINE      CODE     ---       #125
      0100184DH   LINE      CODE     ---       #126
      0100184DH   LINE      CODE     ---       #127
      01001855H   LINE      CODE     ---       #128
      01001855H   LINE      CODE     ---       #129
      01001857H   LINE      CODE     ---       #130
      01001857H   LINE      CODE     ---       #132
      01001857H   LINE      CODE     ---       #133
      ---         BLOCKEND  ---      ---       LVL=0

      01001629H   BLOCK     CODE     ---       LVL=0
      01001629H   LINE      CODE     ---       #143
      01001629H   LINE      CODE     ---       #144
LX51 LINKER/LOCATER V4.66.41.0                                                        03/10/2021  14:40:17  PAGE 24


      01001629H   LINE      CODE     ---       #145
      0100162FH   LINE      CODE     ---       #146
      0100162FH   LINE      CODE     ---       #147
      0100163AH   LINE      CODE     ---       #148
      0100163AH   LINE      CODE     ---       #149
      01001640H   LINE      CODE     ---       #150
      01001640H   LINE      CODE     ---       #151
      0100164BH   LINE      CODE     ---       #152
      0100164BH   LINE      CODE     ---       #154
      ---         BLOCKEND  ---      ---       LVL=0

      01001832H   BLOCK     CODE     ---       LVL=0
      01001832H   LINE      CODE     ---       #165
      01001832H   LINE      CODE     ---       #166
      01001832H   LINE      CODE     ---       #167
      0100183AH   LINE      CODE     ---       #168
      0100183AH   LINE      CODE     ---       #170
      0100183AH   LINE      CODE     ---       #171
      0100183FH   LINE      CODE     ---       #174
      ---         BLOCKEND  ---      ---       LVL=0

      0100164CH   BLOCK     CODE     ---       LVL=0
      0100164CH   BLOCK     CODE     NEAR LAB  LVL=1
      00000007H   SYMBOL    DATA     BYTE      ucLoop
      00000006H   SYMBOL    DATA     CHAR      boButtonBoardsPressed
      ---         BLOCKEND  ---      ---       LVL=1
      0100164CH   LINE      CODE     ---       #185
      0100164CH   LINE      CODE     ---       #186
      0100164CH   LINE      CODE     ---       #187
      0100164EH   LINE      CODE     ---       #188
      0100164FH   LINE      CODE     ---       #190
      0100164FH   LINE      CODE     ---       #191
      0100164FH   LINE      CODE     ---       #192
      01001657H   LINE      CODE     ---       #193
      01001657H   LINE      CODE     ---       #194
      01001659H   LINE      CODE     ---       #195
      01001659H   LINE      CODE     ---       #196
      0100165EH   LINE      CODE     ---       #198
      01001669H   LINE      CODE     ---       #199
      01001669H   LINE      CODE     ---       #200
      0100166CH   LINE      CODE     ---       #201
      0100166CH   LINE      CODE     ---       #203
      0100166EH   LINE      CODE     ---       #204
      ---         BLOCKEND  ---      ---       LVL=0

      01000C33H   BLOCK     CODE     ---       LVL=0
      01000C33H   LINE      CODE     ---       #213
      01000C33H   LINE      CODE     ---       #214
      01000C33H   LINE      CODE     ---       #218
      01000C39H   LINE      CODE     ---       #219
      01000C39H   LINE      CODE     ---       #220
      01000C44H   LINE      CODE     ---       #221
      01000C44H   LINE      CODE     ---       #222
      01000C49H   LINE      CODE     ---       #223
      01000C4BH   LINE      CODE     ---       #225
      01000C4BH   LINE      CODE     ---       #227
      01000C4BH   LINE      CODE     ---       #228
      01000C4BH   LINE      CODE     ---       #229
      01000C51H   LINE      CODE     ---       #230
      01000C51H   LINE      CODE     ---       #231
      01000C54H   LINE      CODE     ---       #232
      01000C59H   LINE      CODE     ---       #233
      01000C5CH   LINE      CODE     ---       #234
      01000C5FH   LINE      CODE     ---       #235
      01000C62H   LINE      CODE     ---       #236
LX51 LINKER/LOCATER V4.66.41.0                                                        03/10/2021  14:40:17  PAGE 25


      01000C62H   LINE      CODE     ---       #237
      01000C62H   LINE      CODE     ---       #238
      01000C62H   LINE      CODE     ---       #239
      01000C62H   LINE      CODE     ---       #240
      01000C65H   LINE      CODE     ---       #244
      01000C65H   LINE      CODE     ---       #247
      01000C6DH   LINE      CODE     ---       #248
      01000C6DH   LINE      CODE     ---       #249
      01000C70H   LINE      CODE     ---       #250
      01000C75H   LINE      CODE     ---       #252
      01000C7AH   LINE      CODE     ---       #253
      01000C7AH   LINE      CODE     ---       #254
      01000C7DH   LINE      CODE     ---       #255
      01000C7FH   LINE      CODE     ---       #256
      01000C82H   LINE      CODE     ---       #258
      01000C82H   LINE      CODE     ---       #259
      01000C8EH   LINE      CODE     ---       #260
      01000C8EH   LINE      CODE     ---       #261
      01000C92H   LINE      CODE     ---       #263
      01000C92H   LINE      CODE     ---       #266
      01000C9BH   LINE      CODE     ---       #267
      01000C9BH   LINE      CODE     ---       #268
      01000CA1H   LINE      CODE     ---       #269
      01000CA1H   LINE      CODE     ---       #270
      01000CA4H   LINE      CODE     ---       #271
      01000CA9H   LINE      CODE     ---       #272
      01000CACH   LINE      CODE     ---       #273
      01000CAFH   LINE      CODE     ---       #274
      01000CB2H   LINE      CODE     ---       #275
      01000CB7H   LINE      CODE     ---       #276
      01000CBCH   LINE      CODE     ---       #277
      01000CBFH   LINE      CODE     ---       #279
      01000CC1H   LINE      CODE     ---       #280
      01000CC7H   LINE      CODE     ---       #281
      01000CC7H   LINE      CODE     ---       #282
      01000CCAH   LINE      CODE     ---       #283
      01000CCAH   LINE      CODE     ---       #284
      01000CCEH   LINE      CODE     ---       #285
      01000CD0H   LINE      CODE     ---       #286
      01000CD0H   LINE      CODE     ---       #287
      01000CD2H   LINE      CODE     ---       #289
      01000CD2H   LINE      CODE     ---       #290
      01000CD8H   LINE      CODE     ---       #291
      01000CD8H   LINE      CODE     ---       #292
      01000CDFH   LINE      CODE     ---       #293
      01000CDFH   LINE      CODE     ---       #294
      01000CE3H   LINE      CODE     ---       #298
      01000CEFH   LINE      CODE     ---       #299
      01000CEFH   LINE      CODE     ---       #311
      01000CF3H   LINE      CODE     ---       #312
      01000CF6H   LINE      CODE     ---       #313
      01000CF9H   LINE      CODE     ---       #315
      01000CFEH   LINE      CODE     ---       #316
      01000D03H   LINE      CODE     ---       #319
      01000D03H   LINE      CODE     ---       #320
      01000D03H   LINE      CODE     ---       #321
      01000D04H   LINE      CODE     ---       #322
      01000D0AH   LINE      CODE     ---       #323
      01000D0AH   LINE      CODE     ---       #324
      01000D0DH   LINE      CODE     ---       #325
      01000D0DH   LINE      CODE     ---       #326
      01000D0DH   LINE      CODE     ---       #328
      ---         BLOCKEND  ---      ---       LVL=0

      0100102AH   BLOCK     CODE     ---       LVL=0
LX51 LINKER/LOCATER V4.66.41.0                                                        03/10/2021  14:40:17  PAGE 26


      0100102AH   BLOCK     CODE     NEAR LAB  LVL=1
      0200004EH   SYMBOL    PDATA    BYTE      enButtonPressed
      02000000H   SYMBOL    PDATA    WORD      usButtonAdcSamplelValue
      ---         BLOCKEND  ---      ---       LVL=1
      0100102AH   LINE      CODE     ---       #338
      0100102AH   LINE      CODE     ---       #339
      0100102AH   LINE      CODE     ---       #342
      0100102FH   LINE      CODE     ---       #345
      0100103BH   LINE      CODE     ---       #349
      0100103EH   LINE      CODE     ---       #350
      0100103EH   LINE      CODE     ---       #352
      01001040H   LINE      CODE     ---       #353
      01001040H   LINE      CODE     ---       #355
      01001058H   LINE      CODE     ---       #357
      01001058H   LINE      CODE     ---       #358
      0100105CH   LINE      CODE     ---       #359
      0100105EH   LINE      CODE     ---       #361
      01001070H   LINE      CODE     ---       #363
      01001070H   LINE      CODE     ---       #364
      01001075H   LINE      CODE     ---       #365
      01001077H   LINE      CODE     ---       #366
      01001089H   LINE      CODE     ---       #368
      01001089H   LINE      CODE     ---       #369
      0100108EH   LINE      CODE     ---       #370
      01001090H   LINE      CODE     ---       #371
      010010A2H   LINE      CODE     ---       #373
      010010A2H   LINE      CODE     ---       #375
      010010A7H   LINE      CODE     ---       #376
      010010A7H   LINE      CODE     ---       #377
      010010ABH   LINE      CODE     ---       #378
      ---         BLOCKEND  ---      ---       LVL=0

      01001569H   BLOCK     CODE     ---       LVL=0
      01001569H   BLOCK     CODE     NEAR LAB  LVL=1
      00000007H   SYMBOL    DATA     BYTE      ucLoop
      ---         BLOCKEND  ---      ---       LVL=1
      01001569H   LINE      CODE     ---       #388
      01001569H   LINE      CODE     ---       #389
      01001569H   LINE      CODE     ---       #390
      0100156BH   LINE      CODE     ---       #392
      0100156FH   LINE      CODE     ---       #394
      0100156FH   LINE      CODE     ---       #395
      0100156FH   LINE      CODE     ---       #396
      01001577H   LINE      CODE     ---       #397
      01001577H   LINE      CODE     ---       #398
      01001582H   LINE      CODE     ---       #399
      01001582H   LINE      CODE     ---       #400
      01001587H   LINE      CODE     ---       #402
      0100158DH   LINE      CODE     ---       #403
      0100158DH   LINE      CODE     ---       #404
      01001592H   LINE      CODE     ---       #405
      01001592H   LINE      CODE     ---       #408
      ---         BLOCKEND  ---      ---       LVL=0

      0100171FH   BLOCK     CODE     ---       LVL=0
      00000007H   SYMBOL    DATA     BYTE      enButtonPressed
      0100171FH   LINE      CODE     ---       #419
      0100171FH   LINE      CODE     ---       #420
      0100171FH   LINE      CODE     ---       #421
      01001727H   LINE      CODE     ---       #422
      01001727H   LINE      CODE     ---       #425
      01001733H   LINE      CODE     ---       #426
      01001733H   LINE      CODE     ---       #427
      01001736H   LINE      CODE     ---       #428
      01001736H   LINE      CODE     ---       #429
LX51 LINKER/LOCATER V4.66.41.0                                                        03/10/2021  14:40:17  PAGE 27


      01001736H   LINE      CODE     ---       #431
      01001738H   LINE      CODE     ---       #432
      ---         BLOCKEND  ---      ---       LVL=0

      010007A8H   BLOCK     CODE     ---       LVL=0
      010007A8H   BLOCK     CODE     NEAR LAB  LVL=1
      0200004DH   SYMBOL    PDATA    BYTE      ucLoop
      ---         BLOCKEND  ---      ---       LVL=1
      010007A8H   LINE      CODE     ---       #442
      010007A8H   LINE      CODE     ---       #443
      010007A8H   LINE      CODE     ---       #444
      010007ACH   LINE      CODE     ---       #446
      010007CBH   LINE      CODE     ---       #449
      010007CBH   LINE      CODE     ---       #451
      010007CBH   LINE      CODE     ---       #452
      010007D5H   LINE      CODE     ---       #453
      010007D5H   LINE      CODE     ---       #454
      010007D6H   LINE      CODE     ---       #458
      010007DCH   LINE      CODE     ---       #459
      010007DCH   LINE      CODE     ---       #460
      010007E1H   LINE      CODE     ---       #461
      010007E1H   LINE      CODE     ---       #462
      010007E3H   LINE      CODE     ---       #464
      010007E4H   LINE      CODE     ---       #466
      010007E4H   LINE      CODE     ---       #467
      010007E9H   LINE      CODE     ---       #469
      010007F6H   LINE      CODE     ---       #470
      010007F6H   LINE      CODE     ---       #472
      010007FEH   LINE      CODE     ---       #473
      010007FEH   LINE      CODE     ---       #474
      01000801H   LINE      CODE     ---       #476
      01000803H   LINE      CODE     ---       #478
      01000803H   LINE      CODE     ---       #479
      01000803H   LINE      CODE     ---       #480
      01000803H   LINE      CODE     ---       #481
      01000806H   LINE      CODE     ---       #483
      0100080EH   LINE      CODE     ---       #487
      0100080EH   LINE      CODE     ---       #488
      01000813H   LINE      CODE     ---       #489
      01000813H   LINE      CODE     ---       #490
      01000815H   LINE      CODE     ---       #492
      01000815H   LINE      CODE     ---       #494
      01000824H   LINE      CODE     ---       #495
      01000824H   LINE      CODE     ---       #496
      01000829H   LINE      CODE     ---       #498
      01000831H   LINE      CODE     ---       #499
      01000831H   LINE      CODE     ---       #500
      01000834H   LINE      CODE     ---       #501
      01000836H   LINE      CODE     ---       #503
      01000836H   LINE      CODE     ---       #504
      01000836H   LINE      CODE     ---       #505
      01000839H   LINE      CODE     ---       #507
      01000841H   LINE      CODE     ---       #508
      01000841H   LINE      CODE     ---       #509
      01000847H   LINE      CODE     ---       #510
      01000847H   LINE      CODE     ---       #511
      0100084CH   LINE      CODE     ---       #514
      0100084CH   LINE      CODE     ---       #516
      01000851H   LINE      CODE     ---       #517
      01000851H   LINE      CODE     ---       #518
      01000853H   LINE      CODE     ---       #519
      01000854H   LINE      CODE     ---       #521
      01000854H   LINE      CODE     ---       #522
      0100085CH   LINE      CODE     ---       #523
      0100085CH   LINE      CODE     ---       #524
LX51 LINKER/LOCATER V4.66.41.0                                                        03/10/2021  14:40:17  PAGE 28


      01000861H   LINE      CODE     ---       #525
      01000861H   LINE      CODE     ---       #527
      01000869H   LINE      CODE     ---       #528
      01000869H   LINE      CODE     ---       #529
      0100086EH   LINE      CODE     ---       #530
      0100086EH   LINE      CODE     ---       #531
      01000871H   LINE      CODE     ---       #533
      01000876H   LINE      CODE     ---       #535
      01000876H   LINE      CODE     ---       #536
      01000876H   LINE      CODE     ---       #538
      01000885H   LINE      CODE     ---       #539
      01000885H   LINE      CODE     ---       #540
      0100088DH   LINE      CODE     ---       #541
      0100088DH   LINE      CODE     ---       #542
      0100088FH   LINE      CODE     ---       #546
      01000892H   LINE      CODE     ---       #547
      01000895H   LINE      CODE     ---       #549
      01000895H   LINE      CODE     ---       #552
      01000895H   LINE      CODE     ---       #553
      01000895H   LINE      CODE     ---       #554
      01000895H   LINE      CODE     ---       #556
      0100089DH   LINE      CODE     ---       #557
      0100089DH   LINE      CODE     ---       #558
      010008A3H   LINE      CODE     ---       #559
      010008A3H   LINE      CODE     ---       #560
      010008A7H   LINE      CODE     ---       #563
      010008A7H   LINE      CODE     ---       #565
      010008ACH   LINE      CODE     ---       #566
      010008ACH   LINE      CODE     ---       #567
      010008AEH   LINE      CODE     ---       #568
      010008AFH   LINE      CODE     ---       #570
      010008AFH   LINE      CODE     ---       #571
      010008B7H   LINE      CODE     ---       #572
      010008B7H   LINE      CODE     ---       #573
      010008BCH   LINE      CODE     ---       #574
      010008BCH   LINE      CODE     ---       #576
      010008C4H   LINE      CODE     ---       #577
      010008C4H   LINE      CODE     ---       #578
      010008C9H   LINE      CODE     ---       #579
      010008C9H   LINE      CODE     ---       #580
      010008CCH   LINE      CODE     ---       #581
      010008D1H   LINE      CODE     ---       #583
      010008D1H   LINE      CODE     ---       #584
      010008D1H   LINE      CODE     ---       #586
      010008DDH   LINE      CODE     ---       #587
      010008DDH   LINE      CODE     ---       #588
      010008E2H   LINE      CODE     ---       #590
      010008E7H   LINE      CODE     ---       #591
      010008E7H   LINE      CODE     ---       #592
      010008EAH   LINE      CODE     ---       #593
      010008EFH   LINE      CODE     ---       #595
      010008EFH   LINE      CODE     ---       #597
      010008EFH   LINE      CODE     ---       #598
      010008EFH   LINE      CODE     ---       #599
      010008F0H   LINE      CODE     ---       #643
      010008F0H   LINE      CODE     ---       #645
      010008FDH   LINE      CODE     ---       #646
      010008FDH   LINE      CODE     ---       #647
      01000903H   LINE      CODE     ---       #648
      01000909H   LINE      CODE     ---       #649
      01000910H   LINE      CODE     ---       #650
      01000916H   LINE      CODE     ---       #653
      01000919H   LINE      CODE     ---       #654
      01000919H   LINE      CODE     ---       #657
      01000919H   LINE      CODE     ---       #659
LX51 LINKER/LOCATER V4.66.41.0                                                        03/10/2021  14:40:17  PAGE 29


      ---         BLOCKEND  ---      ---       LVL=0

      010010ACH   BLOCK     CODE     ---       LVL=0
      010010ACH   BLOCK     CODE     NEAR LAB  LVL=1
      0200004EH   SYMBOL    PDATA    BYTE      ucDeviceMotorMode
      ---         BLOCKEND  ---      ---       LVL=1
      010010ACH   LINE      CODE     ---       #670
      010010ACH   LINE      CODE     ---       #671
      010010ACH   LINE      CODE     ---       #672
      010010B0H   LINE      CODE     ---       #677
      010010B7H   LINE      CODE     ---       #679
      010010BDH   LINE      CODE     ---       #680
      010010BDH   LINE      CODE     ---       #681
      010010C5H   LINE      CODE     ---       #682
      010010C5H   LINE      CODE     ---       #684
      010010C9H   LINE      CODE     ---       #686
      010010CBH   LINE      CODE     ---       #688
      010010CBH   LINE      CODE     ---       #689
      010010D0H   LINE      CODE     ---       #690
      010010D0H   LINE      CODE     ---       #691
      010010D2H   LINE      CODE     ---       #692
      010010D8H   LINE      CODE     ---       #693
      010010D8H   LINE      CODE     ---       #694
      010010EBH   LINE      CODE     ---       #695
      010010EBH   LINE      CODE     ---       #700
      010010EFH   LINE      CODE     ---       #701
      010010F1H   LINE      CODE     ---       #703
      010010F1H   LINE      CODE     ---       #704
      010010F5H   LINE      CODE     ---       #705
      010010F5H   LINE      CODE     ---       #706
      010010F5H   LINE      CODE     ---       #708
      010010FFH   LINE      CODE     ---       #709
      010010FFH   LINE      CODE     ---       #710
      01001102H   LINE      CODE     ---       #713
      01001104H   LINE      CODE     ---       #715
      01001104H   LINE      CODE     ---       #716
      01001107H   LINE      CODE     ---       #718
      01001107H   LINE      CODE     ---       #719
      01001113H   LINE      CODE     ---       #728
      ---         BLOCKEND  ---      ---       LVL=0

      01001114H   BLOCK     CODE     ---       LVL=0
      01001114H   BLOCK     CODE     NEAR LAB  LVL=1
      0200004EH   SYMBOL    PDATA    BYTE      ucDeviceMotorMode
      ---         BLOCKEND  ---      ---       LVL=1
      01001114H   LINE      CODE     ---       #737
      01001114H   LINE      CODE     ---       #738
      01001114H   LINE      CODE     ---       #739
      01001118H   LINE      CODE     ---       #744
      0100111FH   LINE      CODE     ---       #746
      01001125H   LINE      CODE     ---       #747
      01001125H   LINE      CODE     ---       #748
      0100112DH   LINE      CODE     ---       #749
      0100112DH   LINE      CODE     ---       #750
      01001131H   LINE      CODE     ---       #751
      01001133H   LINE      CODE     ---       #753
      01001133H   LINE      CODE     ---       #754
      01001138H   LINE      CODE     ---       #755
      01001138H   LINE      CODE     ---       #756
      0100113AH   LINE      CODE     ---       #757
      01001140H   LINE      CODE     ---       #758
      01001140H   LINE      CODE     ---       #759
      01001153H   LINE      CODE     ---       #760
      01001153H   LINE      CODE     ---       #761
      01001157H   LINE      CODE     ---       #762
LX51 LINKER/LOCATER V4.66.41.0                                                        03/10/2021  14:40:17  PAGE 30


      01001159H   LINE      CODE     ---       #764
      01001159H   LINE      CODE     ---       #765
      0100115DH   LINE      CODE     ---       #766
      0100115DH   LINE      CODE     ---       #767
      0100115DH   LINE      CODE     ---       #769
      01001167H   LINE      CODE     ---       #770
      01001167H   LINE      CODE     ---       #771
      0100116AH   LINE      CODE     ---       #773
      0100116CH   LINE      CODE     ---       #775
      0100116CH   LINE      CODE     ---       #776
      0100116FH   LINE      CODE     ---       #778
      0100116FH   LINE      CODE     ---       #779
      0100117BH   LINE      CODE     ---       #786
      ---         BLOCKEND  ---      ---       LVL=0

      0100117CH   BLOCK     CODE     ---       LVL=0
      0100117CH   LINE      CODE     ---       #796
      0100117CH   LINE      CODE     ---       #797
      0100117CH   LINE      CODE     ---       #798
      01001183H   LINE      CODE     ---       #799
      01001183H   LINE      CODE     ---       #800
      0100118BH   LINE      CODE     ---       #801
      0100118BH   LINE      CODE     ---       #802
      01001191H   LINE      CODE     ---       #803
      01001191H   LINE      CODE     ---       #804
      01001193H   LINE      CODE     ---       #805
      01001198H   LINE      CODE     ---       #806
      01001198H   LINE      CODE     ---       #807
      0100119EH   LINE      CODE     ---       #808
      0100119EH   LINE      CODE     ---       #809
      010011A3H   LINE      CODE     ---       #810
      010011A5H   LINE      CODE     ---       #811
      010011ABH   LINE      CODE     ---       #812
      010011ABH   LINE      CODE     ---       #813
      010011AFH   LINE      CODE     ---       #814
      010011AFH   LINE      CODE     ---       #816
      010011B6H   LINE      CODE     ---       #819
      010011B6H   LINE      CODE     ---       #821
      010011B6H   LINE      CODE     ---       #822
      010011BAH   LINE      CODE     ---       #823
      010011BDH   LINE      CODE     ---       #824
      010011C0H   LINE      CODE     ---       #825
      010011C6H   LINE      CODE     ---       #826
      010011C6H   LINE      CODE     ---       #827
      010011CBH   LINE      CODE     ---       #828
      010011CDH   LINE      CODE     ---       #829
      010011D3H   LINE      CODE     ---       #830
      010011D3H   LINE      CODE     ---       #831
      010011D8H   LINE      CODE     ---       #832
      010011D8H   LINE      CODE     ---       #834
      010011DDH   LINE      CODE     ---       #835
      010011E2H   LINE      CODE     ---       #836
      010011E2H   LINE      CODE     ---       #837
      010011E2H   LINE      CODE     ---       #839
      ---         BLOCKEND  ---      ---       LVL=0

      010013E0H   BLOCK     CODE     ---       LVL=0
      010013E0H   BLOCK     CODE     NEAR LAB  LVL=1
      0200004EH   SYMBOL    PDATA    BYTE      ucDeviceMotorMode
      ---         BLOCKEND  ---      ---       LVL=1
      010013E0H   LINE      CODE     ---       #848
      010013E0H   LINE      CODE     ---       #849
      010013E0H   LINE      CODE     ---       #850
      010013E4H   LINE      CODE     ---       #852
      010013EBH   LINE      CODE     ---       #854
LX51 LINKER/LOCATER V4.66.41.0                                                        03/10/2021  14:40:17  PAGE 31


      010013F1H   LINE      CODE     ---       #855
      010013F1H   LINE      CODE     ---       #856
      010013F6H   LINE      CODE     ---       #857
      010013F8H   LINE      CODE     ---       #858
      010013FEH   LINE      CODE     ---       #859
      010013FEH   LINE      CODE     ---       #860
      0100140CH   LINE      CODE     ---       #861
      0100140CH   LINE      CODE     ---       #862
      01001411H   LINE      CODE     ---       #863
      01001416H   LINE      CODE     ---       #866
      ---         BLOCKEND  ---      ---       LVL=0

      01000A58H   BLOCK     CODE     ---       LVL=0
      0200004EH   SYMBOL    PDATA    BYTE      enButtonBoardsPressed
      01000A5CH   BLOCK     CODE     NEAR LAB  LVL=1
      0200004FH   SYMBOL    PDATA    BYTE      ucDeviceMotorMode
      ---         BLOCKEND  ---      ---       LVL=1
      01000A58H   LINE      CODE     ---       #875
      01000A5CH   LINE      CODE     ---       #876
      01000A5CH   LINE      CODE     ---       #877
      01000A5FH   LINE      CODE     ---       #879
      01000A66H   LINE      CODE     ---       #881
      01000A6FH   LINE      CODE     ---       #882
      01000A6FH   LINE      CODE     ---       #883
      01000A77H   LINE      CODE     ---       #884
      01000A77H   LINE      CODE     ---       #885
      01000A7DH   LINE      CODE     ---       #886
      01000A7DH   LINE      CODE     ---       #887
      01000A8FH   LINE      CODE     ---       #889
      01000A8FH   LINE      CODE     ---       #890
      01000A92H   LINE      CODE     ---       #891
      01000A92H   LINE      CODE     ---       #892
      01000A92H   LINE      CODE     ---       #893
      01000A96H   LINE      CODE     ---       #894
      01000A96H   LINE      CODE     ---       #895
      01000AA1H   LINE      CODE     ---       #896
      01000AA1H   LINE      CODE     ---       #897
      01000AA4H   LINE      CODE     ---       #898
      01000AA4H   LINE      CODE     ---       #899
      01000AA4H   LINE      CODE     ---       #900
      01000AAEH   LINE      CODE     ---       #901
      01000AAEH   LINE      CODE     ---       #902
      01000AB9H   LINE      CODE     ---       #903
      01000AB9H   LINE      CODE     ---       #904
      01000ABCH   LINE      CODE     ---       #905
      01000ABCH   LINE      CODE     ---       #906
      01000ABCH   LINE      CODE     ---       #907
      01000ABCH   LINE      CODE     ---       #908
      01000AC4H   LINE      CODE     ---       #909
      01000AC4H   LINE      CODE     ---       #910
      01000ACBH   LINE      CODE     ---       #911
      01000ACBH   LINE      CODE     ---       #912
      01000ADAH   LINE      CODE     ---       #914
      01000ADAH   LINE      CODE     ---       #915
      01000ADDH   LINE      CODE     ---       #916
      01000ADDH   LINE      CODE     ---       #917
      01000ADDH   LINE      CODE     ---       #918
      01000AE1H   LINE      CODE     ---       #919
      01000AE1H   LINE      CODE     ---       #920
      01000AE9H   LINE      CODE     ---       #921
      01000AE9H   LINE      CODE     ---       #922
      01000AECH   LINE      CODE     ---       #923
      01000AECH   LINE      CODE     ---       #924
      01000AECH   LINE      CODE     ---       #925
      01000AF3H   LINE      CODE     ---       #926
LX51 LINKER/LOCATER V4.66.41.0                                                        03/10/2021  14:40:17  PAGE 32


      01000AF3H   LINE      CODE     ---       #927
      01000AFBH   LINE      CODE     ---       #928
      01000AFBH   LINE      CODE     ---       #929
      01000AFEH   LINE      CODE     ---       #930
      01000AFEH   LINE      CODE     ---       #931
      01000AFEH   LINE      CODE     ---       #932
      01000AFEH   LINE      CODE     ---       #933
      01000AFEH   LINE      CODE     ---       #934
      01000B06H   LINE      CODE     ---       #935
      01000B06H   LINE      CODE     ---       #936
      01000B0DH   LINE      CODE     ---       #937
      01000B0DH   LINE      CODE     ---       #938
      01000B26H   LINE      CODE     ---       #940
      01000B26H   LINE      CODE     ---       #941
      01000B29H   LINE      CODE     ---       #942
      01000B29H   LINE      CODE     ---       #943
      01000B29H   LINE      CODE     ---       #944
      01000B2DH   LINE      CODE     ---       #945
      01000B2DH   LINE      CODE     ---       #946
      01000B47H   LINE      CODE     ---       #948
      01000B47H   LINE      CODE     ---       #949
      01000B4AH   LINE      CODE     ---       #950
      01000B4AH   LINE      CODE     ---       #951
      01000B4AH   LINE      CODE     ---       #952
      01000B4AH   LINE      CODE     ---       #954
      01000B4CH   LINE      CODE     ---       #955
      ---         BLOCKEND  ---      ---       LVL=0

      0100144EH   BLOCK     CODE     ---       LVL=0
      0100144EH   BLOCK     CODE     NEAR LAB  LVL=1
      02000050H   SYMBOL    PDATA    BYTE      ucDeviceMotorMode
      ---         BLOCKEND  ---      ---       LVL=1
      0100144EH   LINE      CODE     ---       #964
      0100144EH   LINE      CODE     ---       #965
      0100144EH   LINE      CODE     ---       #966
      01001452H   LINE      CODE     ---       #968
      01001459H   LINE      CODE     ---       #969
      0100145FH   LINE      CODE     ---       #970
      0100145FH   LINE      CODE     ---       #971
      01001464H   LINE      CODE     ---       #972
      01001466H   LINE      CODE     ---       #974
      01001466H   LINE      CODE     ---       #975
      01001474H   LINE      CODE     ---       #976
      01001474H   LINE      CODE     ---       #978
      01001479H   LINE      CODE     ---       #979
      0100147EH   LINE      CODE     ---       #980
      ---         BLOCKEND  ---      ---       LVL=0

      010018FAH   BLOCK     CODE     ---       LVL=0
      010018FAH   LINE      CODE     ---       #989
      010018FAH   LINE      CODE     ---       #990
      010018FAH   LINE      CODE     ---       #991
      010018FEH   LINE      CODE     ---       #992
      ---         BLOCKEND  ---      ---       LVL=0

      0100166FH   BLOCK     CODE     ---       LVL=0
      0100166FH   LINE      CODE     ---       #1002
      0100166FH   LINE      CODE     ---       #1003
      0100166FH   LINE      CODE     ---       #1004
      01001675H   LINE      CODE     ---       #1005
      01001675H   LINE      CODE     ---       #1006
      0100167AH   LINE      CODE     ---       #1007
      01001680H   LINE      CODE     ---       #1008
      01001680H   LINE      CODE     ---       #1009
      01001685H   LINE      CODE     ---       #1010
LX51 LINKER/LOCATER V4.66.41.0                                                        03/10/2021  14:40:17  PAGE 33


      01001685H   LINE      CODE     ---       #1011
      01001686H   LINE      CODE     ---       #1013
      01001686H   LINE      CODE     ---       #1014
      0100168AH   LINE      CODE     ---       #1015
      0100168DH   LINE      CODE     ---       #1016
      0100168DH   LINE      CODE     ---       #1019
      ---         BLOCKEND  ---      ---       LVL=0

      01000E53H   BLOCK     CODE     ---       LVL=0
      01000E53H   LINE      CODE     ---       #1028
      01000E53H   LINE      CODE     ---       #1029
      01000E53H   LINE      CODE     ---       #1034
      01000E56H   LINE      CODE     ---       #1035
      01000E56H   LINE      CODE     ---       #1037
      01000E5CH   LINE      CODE     ---       #1038
      01000E63H   LINE      CODE     ---       #1041
      01000E63H   LINE      CODE     ---       #1043
      01000E6DH   LINE      CODE     ---       #1044
      01000E6DH   LINE      CODE     ---       #1045
      01000E71H   LINE      CODE     ---       #1046
      01000E75H   LINE      CODE     ---       #1048
      01000E79H   LINE      CODE     ---       #1051
      01000E79H   LINE      CODE     ---       #1053
      01000E80H   LINE      CODE     ---       #1054
      01000E80H   LINE      CODE     ---       #1055
      01000E81H   LINE      CODE     ---       #1056
      01000E84H   LINE      CODE     ---       #1058
      01000E89H   LINE      CODE     ---       #1059
      01000E89H   LINE      CODE     ---       #1060
      01000EA3H   LINE      CODE     ---       #1063
      01000EA3H   LINE      CODE     ---       #1065
      01000EA8H   LINE      CODE     ---       #1066
      01000EA8H   LINE      CODE     ---       #1067
      01000EC2H   LINE      CODE     ---       #1070
      01000EC2H   LINE      CODE     ---       #1072
      01000ECDH   LINE      CODE     ---       #1073
      01000ECDH   LINE      CODE     ---       #1074
      01000ECFH   LINE      CODE     ---       #1075
      01000ED1H   LINE      CODE     ---       #1077
      01000ED1H   LINE      CODE     ---       #1078
      01000EDAH   LINE      CODE     ---       #1079
      01000EDAH   LINE      CODE     ---       #1081
      01000EE5H   LINE      CODE     ---       #1082
      01000EE5H   LINE      CODE     ---       #1083
      01000EE7H   LINE      CODE     ---       #1084
      01000EE8H   LINE      CODE     ---       #1086
      01000EE8H   LINE      CODE     ---       #1087
      01000EF1H   LINE      CODE     ---       #1088
      01000EF1H   LINE      CODE     ---       #1092
      01000EF1H   LINE      CODE     ---       #1096
      ---         BLOCKEND  ---      ---       LVL=0

      010018FFH   BLOCK     CODE     ---       LVL=0
      010018FFH   LINE      CODE     ---       #1105
      010018FFH   LINE      CODE     ---       #1106
      010018FFH   LINE      CODE     ---       #1107
      01001903H   LINE      CODE     ---       #1108
      ---         BLOCKEND  ---      ---       LVL=0

      01001904H   BLOCK     CODE     ---       LVL=0
      01001904H   LINE      CODE     ---       #1117
      01001904H   LINE      CODE     ---       #1118
      01001904H   LINE      CODE     ---       #1119
      01001908H   LINE      CODE     ---       #1120
      ---         BLOCKEND  ---      ---       LVL=0
LX51 LINKER/LOCATER V4.66.41.0                                                        03/10/2021  14:40:17  PAGE 34



      01001739H   BLOCK     CODE     ---       LVL=0
      01001739H   LINE      CODE     ---       #1130
      01001739H   LINE      CODE     ---       #1131
      01001739H   LINE      CODE     ---       #1132
      0100173EH   LINE      CODE     ---       #1134
      01001743H   LINE      CODE     ---       #1135
      01001748H   LINE      CODE     ---       #1137
      0100174DH   LINE      CODE     ---       #1138
      01001752H   LINE      CODE     ---       #1140
      ---         BLOCKEND  ---      ---       LVL=0

      01001840H   BLOCK     CODE     ---       LVL=0
      01001840H   LINE      CODE     ---       #1149
      01001840H   LINE      CODE     ---       #1150
      01001840H   LINE      CODE     ---       #1151
      01001844H   LINE      CODE     ---       #1152
      01001847H   LINE      CODE     ---       #1153
      0100184AH   LINE      CODE     ---       #1154
      0100184CH   LINE      CODE     ---       #1156
      ---         BLOCKEND  ---      ---       LVL=0

      010017E0H   BLOCK     CODE     ---       LVL=0
      010017E0H   LINE      CODE     ---       #1165
      010017E0H   LINE      CODE     ---       #1166
      010017E0H   LINE      CODE     ---       #1167
      010017E6H   LINE      CODE     ---       #1168
      010017E9H   LINE      CODE     ---       #1169
      010017ECH   LINE      CODE     ---       #1170
      010017EFH   LINE      CODE     ---       #1171
      010017F2H   LINE      CODE     ---       #1173
      ---         BLOCKEND  ---      ---       LVL=0

      0100147FH   BLOCK     CODE     ---       LVL=0
      0100147FH   LINE      CODE     ---       #1182
      0100147FH   LINE      CODE     ---       #1183
      0100147FH   LINE      CODE     ---       #1184
      01001482H   LINE      CODE     ---       #1185
      01001485H   LINE      CODE     ---       #1186
      01001488H   LINE      CODE     ---       #1187
      0100148BH   LINE      CODE     ---       #1188
      0100148EH   LINE      CODE     ---       #1189
      01001491H   LINE      CODE     ---       #1190
      01001494H   LINE      CODE     ---       #1191
      01001497H   LINE      CODE     ---       #1192
      0100149AH   LINE      CODE     ---       #1193
      0100149DH   LINE      CODE     ---       #1194
      010014A0H   LINE      CODE     ---       #1195
      010014A5H   LINE      CODE     ---       #1196
      010014A8H   LINE      CODE     ---       #1198
      010014ABH   LINE      CODE     ---       #1199
      010014ACH   LINE      CODE     ---       #1200
      010014ADH   LINE      CODE     ---       #1201
      010014AEH   LINE      CODE     ---       #1202
      010014AFH   LINE      CODE     ---       #1205
      ---         BLOCKEND  ---      ---       LVL=0

      ---         MODULE    ---      ---       HAL_BATTERY
      0200006FH   PUBLIC    PDATA    BYTE      ucBatterySampleFiterCount
      010016E9H   PUBLIC    CODE     ---       BatterySampleParamClear
      010017F3H   PUBLIC    CODE     ---       BatterySampleTimerCountClear
      01001417H   PUBLIC    CODE     ---       TemperatureWarning
      0100091AH   PUBLIC    CODE     ---       HAL_BatteryMonitor
      0100190EH   PUBLIC    CODE     ---       _TemperatureOverStateSet
      01001909H   PUBLIC    CODE     ---       TemperatureOverStateGet
LX51 LINKER/LOCATER V4.66.41.0                                                        03/10/2021  14:40:17  PAGE 35


      010017A1H   PUBLIC    CODE     ---       BatterySampleFrequence
      01000DB2H   PUBLIC    CODE     ---       BatterySampleFiter
      01001823H   PUBLIC    CODE     ---       HAL_BatteryADCPhysicalVoltage
      000000FFH   SFRSYM    DATA     BYTE      OPREG
      00000080H   SFRSYM    DATA     BYTE      P0
      00000090H   SFRSYM    DATA     BYTE      P1
      000000A0H   SFRSYM    DATA     BYTE      P2
      000000A8H.4 SFRSYM    DATA     BIT       EUART
      0000008EH   SFRSYM    DATA     BYTE      TMCON
      000000D0H.6 SFRSYM    DATA     BIT       AC
      0000008FH   SFRSYM    DATA     BYTE      OTCON
      000000D8H   SFRSYM    DATA     BYTE      P5
      000000A8H.7 SFRSYM    DATA     BIT       EA
      000000C8H.1 SFRSYM    DATA     BIT       T2
      000000A8H.6 SFRSYM    DATA     BIT       EADC
      000000A8H   SFRSYM    DATA     BYTE      IE
      000000FEH   SFRSYM    DATA     BYTE      OPINX
      000000C8H   SFRSYM    DATA     BIT       CP
      000000C8H.6 SFRSYM    DATA     BIT       EXF2
      000000D5H   SFRSYM    DATA     BYTE      PWMDTY0
      000000D6H   SFRSYM    DATA     BYTE      PWMDTY1
      0000009BH   SFRSYM    DATA     BYTE      P0PH
      000000B8H   SFRSYM    DATA     BYTE      IP
      000000D7H   SFRSYM    DATA     BYTE      PWMDTY2
      00000092H   SFRSYM    DATA     BYTE      P1PH
      00000098H   SFRSYM    DATA     BIT       RI
      000000A2H   SFRSYM    DATA     BYTE      P2PH
      000000D0H.7 SFRSYM    DATA     BIT       CY
      00000098H.1 SFRSYM    DATA     BIT       TI
      000000B8H.1 SFRSYM    DATA     BIT       IPT0
      000000DAH   SFRSYM    DATA     BYTE      P5PH
      000000B8H.3 SFRSYM    DATA     BIT       IPT1
      000000B8H.5 SFRSYM    DATA     BIT       IPT2
      000000CBH   SFRSYM    DATA     BYTE      RCAP2H
      00000081H   SFRSYM    DATA     BYTE      SP
      000000D0H.2 SFRSYM    DATA     BIT       OV
      000000F4H   SFRSYM    DATA     BYTE      IAPADE
      0000009CH   SFRSYM    DATA     BYTE      P0VO
      000000CAH   SFRSYM    DATA     BYTE      RCAP2L
      000000F3H   SFRSYM    DATA     BYTE      IAPADH
      000000D4H   SFRSYM    DATA     BYTE      PWMDTYA
      000000ADH   SFRSYM    DATA     BYTE      ADCCON
      000000C8H.5 SFRSYM    DATA     BIT       RCLK
      000000F2H   SFRSYM    DATA     BYTE      IAPADL
      000000C8H.4 SFRSYM    DATA     BIT       TCLK
      00000080H   SFRSYM    DATA     BIT       P00
      00000090H   SFRSYM    DATA     BIT       P10
      00000080H.1 SFRSYM    DATA     BIT       P01
      00000099H   SFRSYM    DATA     BYTE      SBUF
      00000087H   SFRSYM    DATA     BYTE      PCON
      000000A0H   SFRSYM    DATA     BIT       P20
      00000090H.1 SFRSYM    DATA     BIT       P11
      00000080H.2 SFRSYM    DATA     BIT       P02
      000000A0H.1 SFRSYM    DATA     BIT       P21
      00000090H.2 SFRSYM    DATA     BIT       P12
      00000080H.3 SFRSYM    DATA     BIT       P03
      000000A0H.2 SFRSYM    DATA     BIT       P22
      00000090H.3 SFRSYM    DATA     BIT       P13
      00000080H.4 SFRSYM    DATA     BIT       P04
      00000098H   SFRSYM    DATA     BYTE      SCON
      000000D8H   SFRSYM    DATA     BIT       P50
      000000A0H.3 SFRSYM    DATA     BIT       P23
      00000090H.4 SFRSYM    DATA     BIT       P14
      00000080H.5 SFRSYM    DATA     BIT       P05
      000000F5H   SFRSYM    DATA     BYTE      IAPDAT
LX51 LINKER/LOCATER V4.66.41.0                                                        03/10/2021  14:40:17  PAGE 36


      00000088H   SFRSYM    DATA     BYTE      TCON
      00000089H   SFRSYM    DATA     BYTE      TMOD
      000000D8H.1 SFRSYM    DATA     BIT       P51
      000000A0H.4 SFRSYM    DATA     BIT       P24
      00000090H.5 SFRSYM    DATA     BIT       P15
      00000080H.6 SFRSYM    DATA     BIT       P06
      000000B8H   SFRSYM    DATA     BIT       IPINT0
      000000A0H.5 SFRSYM    DATA     BIT       P25
      00000090H.6 SFRSYM    DATA     BIT       P16
      00000080H.7 SFRSYM    DATA     BIT       P07
      000000B8H.2 SFRSYM    DATA     BIT       IPINT1
      000000A0H.6 SFRSYM    DATA     BIT       P26
      00000090H.7 SFRSYM    DATA     BIT       P17
      000000A0H.7 SFRSYM    DATA     BIT       P27
      000000F6H   SFRSYM    DATA     BYTE      IAPCTL
      000000A9H   SFRSYM    DATA     BYTE      IE1
      000000F0H   SFRSYM    DATA     BYTE      B
      00000097H   SFRSYM    DATA     BYTE      IOHCON
      000000F1H   SFRSYM    DATA     BYTE      IAPKEY
      000000CEH   SFRSYM    DATA     BYTE      BTMCON
      000000D1H   SFRSYM    DATA     BYTE      PWMCFG
      000000E0H   SFRSYM    DATA     BYTE      ACC
      000000A8H.1 SFRSYM    DATA     BIT       ET0
      00000088H.5 SFRSYM    DATA     BIT       TF0
      000000A8H.3 SFRSYM    DATA     BIT       ET1
      000000ABH   SFRSYM    DATA     BYTE      ADCCFG0
      000000B9H   SFRSYM    DATA     BYTE      IP1
      00000088H.7 SFRSYM    DATA     BIT       TF1
      000000A8H.5 SFRSYM    DATA     BIT       ET2
      000000ACH   SFRSYM    DATA     BYTE      ADCCFG1
      00000098H.2 SFRSYM    DATA     BIT       RB8
      000000C8H.7 SFRSYM    DATA     BIT       TF2
      0000008CH   SFRSYM    DATA     BYTE      TH0
      0000008DH   SFRSYM    DATA     BYTE      TH1
      00000098H.3 SFRSYM    DATA     BIT       TB8
      000000CDH   SFRSYM    DATA     BYTE      TH2
      000000D0H   SFRSYM    DATA     BIT       P
      00000098H.7 SFRSYM    DATA     BIT       SM0
      0000008AH   SFRSYM    DATA     BYTE      TL0
      00000098H.6 SFRSYM    DATA     BIT       SM1
      000000CFH   SFRSYM    DATA     BYTE      WDTCON
      0000008BH   SFRSYM    DATA     BYTE      TL1
      00000098H.5 SFRSYM    DATA     BIT       SM2
      000000CCH   SFRSYM    DATA     BYTE      TL2
      000000D0H.3 SFRSYM    DATA     BIT       RS0
      00000088H.4 SFRSYM    DATA     BIT       TR0
      000000D0H.4 SFRSYM    DATA     BIT       RS1
      000000D2H   SFRSYM    DATA     BYTE      PWMCON
      00000088H.6 SFRSYM    DATA     BIT       TR1
      000000B8H.4 SFRSYM    DATA     BIT       IPUART
      000000C8H.2 SFRSYM    DATA     BIT       TR2
      000000D3H   SFRSYM    DATA     BYTE      PWMPRD
      00000083H   SFRSYM    DATA     BYTE      DPH
      00000082H   SFRSYM    DATA     BYTE      DPL
      000000A8H   SFRSYM    DATA     BIT       EINT0
      0000009AH   SFRSYM    DATA     BYTE      P0CON
      000000A8H.2 SFRSYM    DATA     BIT       EINT1
      000000B8H.6 SFRSYM    DATA     BIT       IPADC
      000000BAH   SFRSYM    DATA     BYTE      INT0F
      00000091H   SFRSYM    DATA     BYTE      P1CON
      000000C8H.3 SFRSYM    DATA     BIT       EXEN2
      000000BCH   SFRSYM    DATA     BYTE      INT1F
      000000A1H   SFRSYM    DATA     BYTE      P2CON
      000000C6H   SFRSYM    DATA     BYTE      INT2F
      00000098H.4 SFRSYM    DATA     BIT       REN
LX51 LINKER/LOCATER V4.66.41.0                                                        03/10/2021  14:40:17  PAGE 37


      000000D9H   SFRSYM    DATA     BYTE      P5CON
      000000AFH   SFRSYM    DATA     BYTE      ADCVH
      000000C9H   SFRSYM    DATA     BYTE      T2MOD
      000000C8H   SFRSYM    DATA     BYTE      T2CON
      000000AEH   SFRSYM    DATA     BYTE      ADCVL
      000000BBH   SFRSYM    DATA     BYTE      INT0R
      000000BDH   SFRSYM    DATA     BYTE      INT1R
      000000C7H   SFRSYM    DATA     BYTE      INT2R
      000000D0H.5 SFRSYM    DATA     BIT       F0
      000000D0H.1 SFRSYM    DATA     BIT       F1
      000000D0H   SFRSYM    DATA     BYTE      PSW
      0200006CH   SYMBOL    PDATA    BYTE      ucDeviceAutoOff_TenSec
      0200006DH   SYMBOL    PDATA    CHAR      boBatteryLowIndicate
      0200006EH   SYMBOL    PDATA    BYTE      ucBatteryLess_3400MV
      02000070H   SYMBOL    PDATA    ---       usBatterySampleFiterValue
      02000084H   SYMBOL    PDATA    WORD      usBatterySampleTimerCount
      02000086H   SYMBOL    PDATA    BYTE      ucBatteryTemperatureOverPeriod
      02000087H   SYMBOL    PDATA    CHAR      boBatteryTemperatureOver
      02000088H   SYMBOL    PDATA    BYTE      ucBatteryTemperatureOverCount

      01001823H   BLOCK     CODE     ---       LVL=0
      01001823H   BLOCK     CODE     NEAR LAB  LVL=1
      00000006H   SYMBOL    DATA     WORD      usBatteryPhysicalValue
      ---         BLOCKEND  ---      ---       LVL=1
      01001823H   LINE      CODE     ---       #48
      01001823H   LINE      CODE     ---       #49
      01001823H   LINE      CODE     ---       #50
      01001825H   LINE      CODE     ---       #53
      01001831H   LINE      CODE     ---       #60
      01001831H   LINE      CODE     ---       #61
      ---         BLOCKEND  ---      ---       LVL=0

      01000DB2H   BLOCK     CODE     ---       LVL=0
      01000DB2H   BLOCK     CODE     NEAR LAB  LVL=1
      02000050H   SYMBOL    PDATA    BYTE      ucLoop
      02000051H   SYMBOL    PDATA    DWORD     ulBatteryValue
      ---         BLOCKEND  ---      ---       LVL=1
      01000DB2H   LINE      CODE     ---       #71
      01000DB2H   LINE      CODE     ---       #72
      01000DB2H   LINE      CODE     ---       #73
      01000DB6H   LINE      CODE     ---       #74
      01000DBEH   LINE      CODE     ---       #77
      01000DCBH   LINE      CODE     ---       #78
      01000DCBH   LINE      CODE     ---       #79
      01000DD8H   LINE      CODE     ---       #80
      01000DD8H   LINE      CODE     ---       #81
      01000DE8H   LINE      CODE     ---       #82
      01000DE8H   LINE      CODE     ---       #83
      01000DEFH   LINE      CODE     ---       #84
      01000DFFH   LINE      CODE     ---       #86
      01000E04H   LINE      CODE     ---       #88
      01000E0AH   LINE      CODE     ---       #89
      01000E0AH   LINE      CODE     ---       #90
      01000E0CH   LINE      CODE     ---       #91
      01000E0CH   LINE      CODE     ---       #93
      01000E10H   LINE      CODE     ---       #94
      01000E10H   LINE      CODE     ---       #95
      01000E31H   LINE      CODE     ---       #96
      01000E3AH   LINE      CODE     ---       #98
      01000E4DH   LINE      CODE     ---       #105
      01000E52H   LINE      CODE     ---       #106
      ---         BLOCKEND  ---      ---       LVL=0

      010017A1H   BLOCK     CODE     ---       LVL=0
      010017A1H   LINE      CODE     ---       #117
LX51 LINKER/LOCATER V4.66.41.0                                                        03/10/2021  14:40:17  PAGE 38


      010017A1H   LINE      CODE     ---       #118
      010017A1H   LINE      CODE     ---       #120
      010017ACH   LINE      CODE     ---       #122
      010017B2H   LINE      CODE     ---       #123
      010017B2H   LINE      CODE     ---       #124
      010017B6H   LINE      CODE     ---       #125
      010017B6H   LINE      CODE     ---       #128
      ---         BLOCKEND  ---      ---       LVL=0

      01001909H   BLOCK     CODE     ---       LVL=0
      01001909H   LINE      CODE     ---       #137
      01001909H   LINE      CODE     ---       #138
      01001909H   LINE      CODE     ---       #139
      0100190DH   LINE      CODE     ---       #140
      ---         BLOCKEND  ---      ---       LVL=0

      0100190EH   BLOCK     CODE     ---       LVL=0
      00000007H   SYMBOL    DATA     CHAR      boTemperature
      0100190EH   LINE      CODE     ---       #150
      0100190EH   LINE      CODE     ---       #151
      0100190EH   LINE      CODE     ---       #152
      01001912H   LINE      CODE     ---       #155
      ---         BLOCKEND  ---      ---       LVL=0

      0100091AH   BLOCK     CODE     ---       LVL=0
      0100091AH   BLOCK     CODE     NEAR LAB  LVL=1
      0200004DH   SYMBOL    PDATA    WORD      usBatteryValue
      0200004FH   SYMBOL    PDATA    CHAR      cBatteryTemperature
      ---         BLOCKEND  ---      ---       LVL=1
      0100091AH   LINE      CODE     ---       #193
      0100091AH   LINE      CODE     ---       #194
      0100091AH   LINE      CODE     ---       #195
      01000920H   LINE      CODE     ---       #196
      01000922H   LINE      CODE     ---       #198
      01000925H   LINE      CODE     ---       #200
      01000934H   LINE      CODE     ---       #201
      01000934H   LINE      CODE     ---       #203
      01000934H   LINE      CODE     ---       #206
      01000942H   LINE      CODE     ---       #208
      01000942H   LINE      CODE     ---       #209
      0100094AH   LINE      CODE     ---       #210
      0100094AH   LINE      CODE     ---       #211
      0100094DH   LINE      CODE     ---       #214
      0100094DH   LINE      CODE     ---       #215
      0100094DH   LINE      CODE     ---       #218
      01000954H   LINE      CODE     ---       #221
      0100095EH   LINE      CODE     ---       #234
      01000966H   LINE      CODE     ---       #235
      01000966H   LINE      CODE     ---       #237
      0100097CH   LINE      CODE     ---       #238
      0100097CH   LINE      CODE     ---       #239
      01000981H   LINE      CODE     ---       #240
      01000986H   LINE      CODE     ---       #241
      01000986H   LINE      CODE     ---       #243
      01000989H   LINE      CODE     ---       #245
      01000989H   LINE      CODE     ---       #246
      01000989H   LINE      CODE     ---       #248
      01000989H   LINE      CODE     ---       #249
      0100098DH   LINE      CODE     ---       #250
      0100098DH   LINE      CODE     ---       #252
      0100098DH   LINE      CODE     ---       #255
      01000995H   LINE      CODE     ---       #256
      01000995H   LINE      CODE     ---       #259
      010009A7H   LINE      CODE     ---       #260
      010009A7H   LINE      CODE     ---       #263
LX51 LINKER/LOCATER V4.66.41.0                                                        03/10/2021  14:40:17  PAGE 39


      010009B0H   LINE      CODE     ---       #264
      010009B0H   LINE      CODE     ---       #265
      010009B3H   LINE      CODE     ---       #266
      010009B3H   LINE      CODE     ---       #267
      010009B3H   LINE      CODE     ---       #271
      010009B5H   LINE      CODE     ---       #273
      010009B5H   LINE      CODE     ---       #274
      010009BBH   LINE      CODE     ---       #275
      010009BBH   LINE      CODE     ---       #276
      010009C0H   LINE      CODE     ---       #277
      010009C0H   LINE      CODE     ---       #279
      010009C6H   LINE      CODE     ---       #280
      010009C6H   LINE      CODE     ---       #282
      010009C9H   LINE      CODE     ---       #283
      010009CBH   LINE      CODE     ---       #285
      010009CEH   LINE      CODE     ---       #287
      010009CEH   LINE      CODE     ---       #289
      010009D1H   LINE      CODE     ---       #290
      010009D3H   LINE      CODE     ---       #292
      010009D3H   LINE      CODE     ---       #293
      010009D3H   LINE      CODE     ---       #294
      010009D5H   LINE      CODE     ---       #296
      010009D5H   LINE      CODE     ---       #298
      010009E7H   LINE      CODE     ---       #299
      010009E7H   LINE      CODE     ---       #300
      010009EDH   LINE      CODE     ---       #301
      010009EDH   LINE      CODE     ---       #304
      010009F2H   LINE      CODE     ---       #305
      010009F2H   LINE      CODE     ---       #306
      010009F4H   LINE      CODE     ---       #308
      010009F4H   LINE      CODE     ---       #310
      010009FAH   LINE      CODE     ---       #311
      010009FAH   LINE      CODE     ---       #312
      010009FFH   LINE      CODE     ---       #313
      010009FFH   LINE      CODE     ---       #338
      01000A15H   LINE      CODE     ---       #339
      01000A15H   LINE      CODE     ---       #341
      01000A1AH   LINE      CODE     ---       #342
      01000A1EH   LINE      CODE     ---       #343
      01000A20H   LINE      CODE     ---       #345
      01000A22H   LINE      CODE     ---       #346
      01000A38H   LINE      CODE     ---       #347
      01000A38H   LINE      CODE     ---       #348
      01000A3DH   LINE      CODE     ---       #349
      01000A3DH   LINE      CODE     ---       #350
      01000A41H   LINE      CODE     ---       #351
      01000A46H   LINE      CODE     ---       #352
      01000A46H   LINE      CODE     ---       #353
      01000A4AH   LINE      CODE     ---       #354
      01000A4DH   LINE      CODE     ---       #355
      01000A4DH   LINE      CODE     ---       #356
      01000A4FH   LINE      CODE     ---       #358
      01000A4FH   LINE      CODE     ---       #359
      01000A54H   LINE      CODE     ---       #362
      01000A54H   LINE      CODE     ---       #365
      01000A54H   LINE      CODE     ---       #366
      01000A54H   LINE      CODE     ---       #367
      01000A54H   LINE      CODE     ---       #369
      01000A57H   LINE      CODE     ---       #371
      ---         BLOCKEND  ---      ---       LVL=0

      01001417H   BLOCK     CODE     ---       LVL=0
      01001417H   LINE      CODE     ---       #381
      01001417H   LINE      CODE     ---       #382
      01001417H   LINE      CODE     ---       #383
LX51 LINKER/LOCATER V4.66.41.0                                                        03/10/2021  14:40:17  PAGE 40


      0100141FH   LINE      CODE     ---       #384
      0100141FH   LINE      CODE     ---       #385
      01001426H   LINE      CODE     ---       #386
      01001426H   LINE      CODE     ---       #387
      01001428H   LINE      CODE     ---       #388
      0100142AH   LINE      CODE     ---       #389
      01001439H   LINE      CODE     ---       #390
      01001439H   LINE      CODE     ---       #391
      0100143EH   LINE      CODE     ---       #392
      01001440H   LINE      CODE     ---       #394
      01001440H   LINE      CODE     ---       #395
      01001444H   LINE      CODE     ---       #396
      01001444H   LINE      CODE     ---       #397
      01001449H   LINE      CODE     ---       #398
      0100144DH   LINE      CODE     ---       #399
      0100144DH   LINE      CODE     ---       #402
      ---         BLOCKEND  ---      ---       LVL=0

      010017F3H   BLOCK     CODE     ---       LVL=0
      010017F3H   LINE      CODE     ---       #412
      010017F3H   LINE      CODE     ---       #413
      010017F3H   LINE      CODE     ---       #414
      010017FFH   LINE      CODE     ---       #415
      010017FFH   LINE      CODE     ---       #416
      01001803H   LINE      CODE     ---       #417
      01001803H   LINE      CODE     ---       #419
      ---         BLOCKEND  ---      ---       LVL=0

      010016E9H   BLOCK     CODE     ---       LVL=0
      010016E9H   LINE      CODE     ---       #429
      010016E9H   LINE      CODE     ---       #430
      010016E9H   LINE      CODE     ---       #431
      010016EFH   LINE      CODE     ---       #432
      010016F2H   LINE      CODE     ---       #434
      010016F6H   LINE      CODE     ---       #437
      010016FAH   LINE      CODE     ---       #439
      010016FDH   LINE      CODE     ---       #440
      01001700H   LINE      CODE     ---       #442
      01001703H   LINE      CODE     ---       #450
      ---         BLOCKEND  ---      ---       LVL=0

      ---         MODULE    ---      ---       HAL_TEMPERATURE
      01001948H   PUBLIC    CONST    ---       stNtcResistanceTemperatureMap
      010005C4H   PUBLIC    CODE     ---       HAL_TemperatureMonitor
      010018B3H   PUBLIC    CODE     ---       TemperatureValueGet
      000000FFH   SFRSYM    DATA     BYTE      OPREG
      00000080H   SFRSYM    DATA     BYTE      P0
      00000090H   SFRSYM    DATA     BYTE      P1
      000000A0H   SFRSYM    DATA     BYTE      P2
      000000A8H.4 SFRSYM    DATA     BIT       EUART
      0000008EH   SFRSYM    DATA     BYTE      TMCON
      000000D0H.6 SFRSYM    DATA     BIT       AC
      0000008FH   SFRSYM    DATA     BYTE      OTCON
      000000D8H   SFRSYM    DATA     BYTE      P5
      000000A8H.7 SFRSYM    DATA     BIT       EA
      000000C8H.1 SFRSYM    DATA     BIT       T2
      000000A8H.6 SFRSYM    DATA     BIT       EADC
      000000A8H   SFRSYM    DATA     BYTE      IE
      000000FEH   SFRSYM    DATA     BYTE      OPINX
      000000C8H   SFRSYM    DATA     BIT       CP
      000000C8H.6 SFRSYM    DATA     BIT       EXF2
      000000D5H   SFRSYM    DATA     BYTE      PWMDTY0
      000000D6H   SFRSYM    DATA     BYTE      PWMDTY1
      0000009BH   SFRSYM    DATA     BYTE      P0PH
      000000B8H   SFRSYM    DATA     BYTE      IP
LX51 LINKER/LOCATER V4.66.41.0                                                        03/10/2021  14:40:17  PAGE 41


      000000D7H   SFRSYM    DATA     BYTE      PWMDTY2
      00000092H   SFRSYM    DATA     BYTE      P1PH
      00000098H   SFRSYM    DATA     BIT       RI
      000000A2H   SFRSYM    DATA     BYTE      P2PH
      000000D0H.7 SFRSYM    DATA     BIT       CY
      00000098H.1 SFRSYM    DATA     BIT       TI
      000000B8H.1 SFRSYM    DATA     BIT       IPT0
      000000DAH   SFRSYM    DATA     BYTE      P5PH
      000000B8H.3 SFRSYM    DATA     BIT       IPT1
      000000B8H.5 SFRSYM    DATA     BIT       IPT2
      000000CBH   SFRSYM    DATA     BYTE      RCAP2H
      00000081H   SFRSYM    DATA     BYTE      SP
      000000D0H.2 SFRSYM    DATA     BIT       OV
      000000F4H   SFRSYM    DATA     BYTE      IAPADE
      0000009CH   SFRSYM    DATA     BYTE      P0VO
      000000CAH   SFRSYM    DATA     BYTE      RCAP2L
      000000F3H   SFRSYM    DATA     BYTE      IAPADH
      000000D4H   SFRSYM    DATA     BYTE      PWMDTYA
      000000ADH   SFRSYM    DATA     BYTE      ADCCON
      000000C8H.5 SFRSYM    DATA     BIT       RCLK
      000000F2H   SFRSYM    DATA     BYTE      IAPADL
      000000C8H.4 SFRSYM    DATA     BIT       TCLK
      00000080H   SFRSYM    DATA     BIT       P00
      00000090H   SFRSYM    DATA     BIT       P10
      00000080H.1 SFRSYM    DATA     BIT       P01
      00000099H   SFRSYM    DATA     BYTE      SBUF
      00000087H   SFRSYM    DATA     BYTE      PCON
      000000A0H   SFRSYM    DATA     BIT       P20
      00000090H.1 SFRSYM    DATA     BIT       P11
      00000080H.2 SFRSYM    DATA     BIT       P02
      000000A0H.1 SFRSYM    DATA     BIT       P21
      00000090H.2 SFRSYM    DATA     BIT       P12
      00000080H.3 SFRSYM    DATA     BIT       P03
      000000A0H.2 SFRSYM    DATA     BIT       P22
      00000090H.3 SFRSYM    DATA     BIT       P13
      00000080H.4 SFRSYM    DATA     BIT       P04
      00000098H   SFRSYM    DATA     BYTE      SCON
      000000D8H   SFRSYM    DATA     BIT       P50
      000000A0H.3 SFRSYM    DATA     BIT       P23
      00000090H.4 SFRSYM    DATA     BIT       P14
      00000080H.5 SFRSYM    DATA     BIT       P05
      000000F5H   SFRSYM    DATA     BYTE      IAPDAT
      00000088H   SFRSYM    DATA     BYTE      TCON
      00000089H   SFRSYM    DATA     BYTE      TMOD
      000000D8H.1 SFRSYM    DATA     BIT       P51
      000000A0H.4 SFRSYM    DATA     BIT       P24
      00000090H.5 SFRSYM    DATA     BIT       P15
      00000080H.6 SFRSYM    DATA     BIT       P06
      000000B8H   SFRSYM    DATA     BIT       IPINT0
      000000A0H.5 SFRSYM    DATA     BIT       P25
      00000090H.6 SFRSYM    DATA     BIT       P16
      00000080H.7 SFRSYM    DATA     BIT       P07
      000000B8H.2 SFRSYM    DATA     BIT       IPINT1
      000000A0H.6 SFRSYM    DATA     BIT       P26
      00000090H.7 SFRSYM    DATA     BIT       P17
      000000A0H.7 SFRSYM    DATA     BIT       P27
      000000F6H   SFRSYM    DATA     BYTE      IAPCTL
      000000A9H   SFRSYM    DATA     BYTE      IE1
      000000F0H   SFRSYM    DATA     BYTE      B
      00000097H   SFRSYM    DATA     BYTE      IOHCON
      000000F1H   SFRSYM    DATA     BYTE      IAPKEY
      000000CEH   SFRSYM    DATA     BYTE      BTMCON
      000000D1H   SFRSYM    DATA     BYTE      PWMCFG
      000000E0H   SFRSYM    DATA     BYTE      ACC
      000000A8H.1 SFRSYM    DATA     BIT       ET0
LX51 LINKER/LOCATER V4.66.41.0                                                        03/10/2021  14:40:17  PAGE 42


      00000088H.5 SFRSYM    DATA     BIT       TF0
      000000A8H.3 SFRSYM    DATA     BIT       ET1
      000000ABH   SFRSYM    DATA     BYTE      ADCCFG0
      000000B9H   SFRSYM    DATA     BYTE      IP1
      00000088H.7 SFRSYM    DATA     BIT       TF1
      000000A8H.5 SFRSYM    DATA     BIT       ET2
      000000ACH   SFRSYM    DATA     BYTE      ADCCFG1
      00000098H.2 SFRSYM    DATA     BIT       RB8
      000000C8H.7 SFRSYM    DATA     BIT       TF2
      0000008CH   SFRSYM    DATA     BYTE      TH0
      0000008DH   SFRSYM    DATA     BYTE      TH1
      00000098H.3 SFRSYM    DATA     BIT       TB8
      000000CDH   SFRSYM    DATA     BYTE      TH2
      000000D0H   SFRSYM    DATA     BIT       P
      00000098H.7 SFRSYM    DATA     BIT       SM0
      0000008AH   SFRSYM    DATA     BYTE      TL0
      00000098H.6 SFRSYM    DATA     BIT       SM1
      000000CFH   SFRSYM    DATA     BYTE      WDTCON
      0000008BH   SFRSYM    DATA     BYTE      TL1
      00000098H.5 SFRSYM    DATA     BIT       SM2
      000000CCH   SFRSYM    DATA     BYTE      TL2
      000000D0H.3 SFRSYM    DATA     BIT       RS0
      00000088H.4 SFRSYM    DATA     BIT       TR0
      000000D0H.4 SFRSYM    DATA     BIT       RS1
      000000D2H   SFRSYM    DATA     BYTE      PWMCON
      00000088H.6 SFRSYM    DATA     BIT       TR1
      000000B8H.4 SFRSYM    DATA     BIT       IPUART
      000000C8H.2 SFRSYM    DATA     BIT       TR2
      000000D3H   SFRSYM    DATA     BYTE      PWMPRD
      00000083H   SFRSYM    DATA     BYTE      DPH
      00000082H   SFRSYM    DATA     BYTE      DPL
      000000A8H   SFRSYM    DATA     BIT       EINT0
      0000009AH   SFRSYM    DATA     BYTE      P0CON
      000000A8H.2 SFRSYM    DATA     BIT       EINT1
      000000B8H.6 SFRSYM    DATA     BIT       IPADC
      000000BAH   SFRSYM    DATA     BYTE      INT0F
      00000091H   SFRSYM    DATA     BYTE      P1CON
      000000C8H.3 SFRSYM    DATA     BIT       EXEN2
      000000BCH   SFRSYM    DATA     BYTE      INT1F
      000000A1H   SFRSYM    DATA     BYTE      P2CON
      000000C6H   SFRSYM    DATA     BYTE      INT2F
      00000098H.4 SFRSYM    DATA     BIT       REN
      000000D9H   SFRSYM    DATA     BYTE      P5CON
      000000AFH   SFRSYM    DATA     BYTE      ADCVH
      000000C9H   SFRSYM    DATA     BYTE      T2MOD
      000000C8H   SFRSYM    DATA     BYTE      T2CON
      000000AEH   SFRSYM    DATA     BYTE      ADCVL
      000000BBH   SFRSYM    DATA     BYTE      INT0R
      000000BDH   SFRSYM    DATA     BYTE      INT1R
      000000C7H   SFRSYM    DATA     BYTE      INT2R
      000000D0H.5 SFRSYM    DATA     BIT       F0
      000000D0H.1 SFRSYM    DATA     BIT       F1
      000000D0H   SFRSYM    DATA     BYTE      PSW

      010018B3H   BLOCK     CODE     ---       LVL=0
      010018B3H   BLOCK     CODE     NEAR LAB  LVL=1
      00000006H   SYMBOL    DATA     WORD      usTemperatureSampleValue
      ---         BLOCKEND  ---      ---       LVL=1
      010018B3H   LINE      CODE     ---       #71
      010018B3H   LINE      CODE     ---       #72
      010018B3H   LINE      CODE     ---       #73
      010018B6H   LINE      CODE     ---       #75
      010018BAH   LINE      CODE     ---       #77
      010018BAH   LINE      CODE     ---       #78
      ---         BLOCKEND  ---      ---       LVL=0
LX51 LINKER/LOCATER V4.66.41.0                                                        03/10/2021  14:40:17  PAGE 43



      010005C4H   BLOCK     CODE     ---       LVL=0
      010005C4H   BLOCK     CODE     NEAR LAB  LVL=1
      02000050H   SYMBOL    PDATA    WORD      usTemperatureAdcVol
      02000052H   SYMBOL    PDATA    FLOAT     fNtcResistance
      02000056H   SYMBOL    PDATA    DWORD     ulNtcResistance
      0200005AH   SYMBOL    PDATA    DWORD     ulResistanceTemp0
      0200005EH   SYMBOL    PDATA    DWORD     ulResistanceTemp1
      02000062H   SYMBOL    PDATA    CHAR      cNtcTemperature
      02000063H   SYMBOL    PDATA    BYTE      ucLoop
      02000064H   SYMBOL    PDATA    WORD      usMapSize
      ---         BLOCKEND  ---      ---       LVL=1
      010005C4H   LINE      CODE     ---       #89
      010005C4H   LINE      CODE     ---       #90
      010005C4H   LINE      CODE     ---       #91
      010005CAH   LINE      CODE     ---       #92
      010005D2H   LINE      CODE     ---       #93
      010005DBH   LINE      CODE     ---       #94
      010005E4H   LINE      CODE     ---       #95
      010005EDH   LINE      CODE     ---       #96
      010005F1H   LINE      CODE     ---       #97
      010005F3H   LINE      CODE     ---       #98
      010005F7H   LINE      CODE     ---       #101
      01000601H   LINE      CODE     ---       #103
      01000609H   LINE      CODE     ---       #107
      01000619H   LINE      CODE     ---       #108
      01000619H   LINE      CODE     ---       #111
      0100061EH   LINE      CODE     ---       #113
      01000620H   LINE      CODE     ---       #114
      01000620H   LINE      CODE     ---       #118
      0100066EH   LINE      CODE     ---       #120
      0100067BH   LINE      CODE     ---       #124
      0100068CH   LINE      CODE     ---       #125
      0100068CH   LINE      CODE     ---       #126
      0100068FH   LINE      CODE     ---       #127
      01000691H   LINE      CODE     ---       #128
      010006B7H   LINE      CODE     ---       #129
      010006B7H   LINE      CODE     ---       #130
      010006D4H   LINE      CODE     ---       #131
      010006D7H   LINE      CODE     ---       #133
      010006D7H   LINE      CODE     ---       #135
      010006EFH   LINE      CODE     ---       #136
      010006EFH   LINE      CODE     ---       #137
      01000705H   LINE      CODE     ---       #138
      0100071BH   LINE      CODE     ---       #140
      0100073BH   LINE      CODE     ---       #141
      0100073BH   LINE      CODE     ---       #143
      01000781H   LINE      CODE     ---       #144
      01000781H   LINE      CODE     ---       #146
      01000789H   LINE      CODE     ---       #147
      0100078BH   LINE      CODE     ---       #149
      0100078BH   LINE      CODE     ---       #150
      01000799H   LINE      CODE     ---       #151
      01000799H   LINE      CODE     ---       #153
      0100079BH   LINE      CODE     ---       #154
      0100079BH   LINE      CODE     ---       #155
      010007A3H   LINE      CODE     ---       #156
      010007A3H   LINE      CODE     ---       #162
      010007A7H   LINE      CODE     ---       #164
      ---         BLOCKEND  ---      ---       LVL=0

      ---         MODULE    ---      ---       DEVICE
      010017CCH   PUBLIC    CODE     ---       DeviceAutoOffParamClear
      01001323H   PUBLIC    CODE     ---       DeviceAutoOffCount
      010011E3H   PUBLIC    CODE     ---       DeviceAutoOff
LX51 LINKER/LOCATER V4.66.41.0                                                        03/10/2021  14:40:17  PAGE 44


      01000D0EH   PUBLIC    CODE     ---       DeviceAPP_ModusRun
      01001704H   PUBLIC    CODE     ---       DeviceAPP_SetModus
      01001605H   PUBLIC    CODE     ---       DeviceApp_SetMotorMode
      0100191DH   PUBLIC    CODE     ---       DeviceApp_GetMotorMode
      01001863H   PUBLIC    CODE     ---       _DeviceApp_SetAppModus
      01001918H   PUBLIC    CODE     ---       DeviceApp_GetModus
      01001858H   PUBLIC    CODE     ---       _DeviceApp_SetAppState
      01001913H   PUBLIC    CODE     ---       DeviceApp_GetSystemState
      000000FFH   SFRSYM    DATA     BYTE      OPREG
      00000080H   SFRSYM    DATA     BYTE      P0
      00000090H   SFRSYM    DATA     BYTE      P1
      000000A0H   SFRSYM    DATA     BYTE      P2
      000000A8H.4 SFRSYM    DATA     BIT       EUART
      0000008EH   SFRSYM    DATA     BYTE      TMCON
      000000D0H.6 SFRSYM    DATA     BIT       AC
      0000008FH   SFRSYM    DATA     BYTE      OTCON
      000000D8H   SFRSYM    DATA     BYTE      P5
      000000A8H.7 SFRSYM    DATA     BIT       EA
      000000C8H.1 SFRSYM    DATA     BIT       T2
      000000A8H.6 SFRSYM    DATA     BIT       EADC
      000000A8H   SFRSYM    DATA     BYTE      IE
      000000FEH   SFRSYM    DATA     BYTE      OPINX
      000000C8H   SFRSYM    DATA     BIT       CP
      000000C8H.6 SFRSYM    DATA     BIT       EXF2
      000000D5H   SFRSYM    DATA     BYTE      PWMDTY0
      000000D6H   SFRSYM    DATA     BYTE      PWMDTY1
      0000009BH   SFRSYM    DATA     BYTE      P0PH
      000000B8H   SFRSYM    DATA     BYTE      IP
      000000D7H   SFRSYM    DATA     BYTE      PWMDTY2
      00000092H   SFRSYM    DATA     BYTE      P1PH
      00000098H   SFRSYM    DATA     BIT       RI
      000000A2H   SFRSYM    DATA     BYTE      P2PH
      000000D0H.7 SFRSYM    DATA     BIT       CY
      00000098H.1 SFRSYM    DATA     BIT       TI
      000000B8H.1 SFRSYM    DATA     BIT       IPT0
      000000DAH   SFRSYM    DATA     BYTE      P5PH
      000000B8H.3 SFRSYM    DATA     BIT       IPT1
      000000B8H.5 SFRSYM    DATA     BIT       IPT2
      000000CBH   SFRSYM    DATA     BYTE      RCAP2H
      00000081H   SFRSYM    DATA     BYTE      SP
      000000D0H.2 SFRSYM    DATA     BIT       OV
      000000F4H   SFRSYM    DATA     BYTE      IAPADE
      0000009CH   SFRSYM    DATA     BYTE      P0VO
      000000CAH   SFRSYM    DATA     BYTE      RCAP2L
      000000F3H   SFRSYM    DATA     BYTE      IAPADH
      000000D4H   SFRSYM    DATA     BYTE      PWMDTYA
      000000ADH   SFRSYM    DATA     BYTE      ADCCON
      000000C8H.5 SFRSYM    DATA     BIT       RCLK
      000000F2H   SFRSYM    DATA     BYTE      IAPADL
      000000C8H.4 SFRSYM    DATA     BIT       TCLK
      00000080H   SFRSYM    DATA     BIT       P00
      00000090H   SFRSYM    DATA     BIT       P10
      00000080H.1 SFRSYM    DATA     BIT       P01
      00000099H   SFRSYM    DATA     BYTE      SBUF
      00000087H   SFRSYM    DATA     BYTE      PCON
      000000A0H   SFRSYM    DATA     BIT       P20
      00000090H.1 SFRSYM    DATA     BIT       P11
      00000080H.2 SFRSYM    DATA     BIT       P02
      000000A0H.1 SFRSYM    DATA     BIT       P21
      00000090H.2 SFRSYM    DATA     BIT       P12
      00000080H.3 SFRSYM    DATA     BIT       P03
      000000A0H.2 SFRSYM    DATA     BIT       P22
      00000090H.3 SFRSYM    DATA     BIT       P13
      00000080H.4 SFRSYM    DATA     BIT       P04
      00000098H   SFRSYM    DATA     BYTE      SCON
LX51 LINKER/LOCATER V4.66.41.0                                                        03/10/2021  14:40:17  PAGE 45


      000000D8H   SFRSYM    DATA     BIT       P50
      000000A0H.3 SFRSYM    DATA     BIT       P23
      00000090H.4 SFRSYM    DATA     BIT       P14
      00000080H.5 SFRSYM    DATA     BIT       P05
      000000F5H   SFRSYM    DATA     BYTE      IAPDAT
      00000088H   SFRSYM    DATA     BYTE      TCON
      00000089H   SFRSYM    DATA     BYTE      TMOD
      000000D8H.1 SFRSYM    DATA     BIT       P51
      000000A0H.4 SFRSYM    DATA     BIT       P24
      00000090H.5 SFRSYM    DATA     BIT       P15
      00000080H.6 SFRSYM    DATA     BIT       P06
      000000B8H   SFRSYM    DATA     BIT       IPINT0
      000000A0H.5 SFRSYM    DATA     BIT       P25
      00000090H.6 SFRSYM    DATA     BIT       P16
      00000080H.7 SFRSYM    DATA     BIT       P07
      000000B8H.2 SFRSYM    DATA     BIT       IPINT1
      000000A0H.6 SFRSYM    DATA     BIT       P26
      00000090H.7 SFRSYM    DATA     BIT       P17
      000000A0H.7 SFRSYM    DATA     BIT       P27
      000000F6H   SFRSYM    DATA     BYTE      IAPCTL
      000000A9H   SFRSYM    DATA     BYTE      IE1
      000000F0H   SFRSYM    DATA     BYTE      B
      00000097H   SFRSYM    DATA     BYTE      IOHCON
      000000F1H   SFRSYM    DATA     BYTE      IAPKEY
      000000CEH   SFRSYM    DATA     BYTE      BTMCON
      000000D1H   SFRSYM    DATA     BYTE      PWMCFG
      000000E0H   SFRSYM    DATA     BYTE      ACC
      000000A8H.1 SFRSYM    DATA     BIT       ET0
      00000088H.5 SFRSYM    DATA     BIT       TF0
      000000A8H.3 SFRSYM    DATA     BIT       ET1
      000000ABH   SFRSYM    DATA     BYTE      ADCCFG0
      000000B9H   SFRSYM    DATA     BYTE      IP1
      00000088H.7 SFRSYM    DATA     BIT       TF1
      000000A8H.5 SFRSYM    DATA     BIT       ET2
      000000ACH   SFRSYM    DATA     BYTE      ADCCFG1
      00000098H.2 SFRSYM    DATA     BIT       RB8
      000000C8H.7 SFRSYM    DATA     BIT       TF2
      0000008CH   SFRSYM    DATA     BYTE      TH0
      0000008DH   SFRSYM    DATA     BYTE      TH1
      00000098H.3 SFRSYM    DATA     BIT       TB8
      000000CDH   SFRSYM    DATA     BYTE      TH2
      000000D0H   SFRSYM    DATA     BIT       P
      00000098H.7 SFRSYM    DATA     BIT       SM0
      0000008AH   SFRSYM    DATA     BYTE      TL0
      00000098H.6 SFRSYM    DATA     BIT       SM1
      000000CFH   SFRSYM    DATA     BYTE      WDTCON
      0000008BH   SFRSYM    DATA     BYTE      TL1
      00000098H.5 SFRSYM    DATA     BIT       SM2
      000000CCH   SFRSYM    DATA     BYTE      TL2
      000000D0H.3 SFRSYM    DATA     BIT       RS0
      00000088H.4 SFRSYM    DATA     BIT       TR0
      000000D0H.4 SFRSYM    DATA     BIT       RS1
      000000D2H   SFRSYM    DATA     BYTE      PWMCON
      00000088H.6 SFRSYM    DATA     BIT       TR1
      000000B8H.4 SFRSYM    DATA     BIT       IPUART
      000000C8H.2 SFRSYM    DATA     BIT       TR2
      000000D3H   SFRSYM    DATA     BYTE      PWMPRD
      00000083H   SFRSYM    DATA     BYTE      DPH
      00000082H   SFRSYM    DATA     BYTE      DPL
      000000A8H   SFRSYM    DATA     BIT       EINT0
      0000009AH   SFRSYM    DATA     BYTE      P0CON
      000000A8H.2 SFRSYM    DATA     BIT       EINT1
      000000B8H.6 SFRSYM    DATA     BIT       IPADC
      000000BAH   SFRSYM    DATA     BYTE      INT0F
      00000091H   SFRSYM    DATA     BYTE      P1CON
LX51 LINKER/LOCATER V4.66.41.0                                                        03/10/2021  14:40:17  PAGE 46


      000000C8H.3 SFRSYM    DATA     BIT       EXEN2
      000000BCH   SFRSYM    DATA     BYTE      INT1F
      000000A1H   SFRSYM    DATA     BYTE      P2CON
      000000C6H   SFRSYM    DATA     BYTE      INT2F
      00000098H.4 SFRSYM    DATA     BIT       REN
      000000D9H   SFRSYM    DATA     BYTE      P5CON
      000000AFH   SFRSYM    DATA     BYTE      ADCVH
      000000C9H   SFRSYM    DATA     BYTE      T2MOD
      000000C8H   SFRSYM    DATA     BYTE      T2CON
      000000AEH   SFRSYM    DATA     BYTE      ADCVL
      000000BBH   SFRSYM    DATA     BYTE      INT0R
      000000BDH   SFRSYM    DATA     BYTE      INT1R
      000000C7H   SFRSYM    DATA     BYTE      INT2R
      000000D0H.5 SFRSYM    DATA     BIT       F0
      000000D0H.1 SFRSYM    DATA     BIT       F1
      000000D0H   SFRSYM    DATA     BYTE      PSW
      02000089H   SYMBOL    PDATA    WORD      usDeviceAutoOff_FiveMin
      0200008BH   SYMBOL    PDATA    CHAR      boIsDeviceWorkWithoutTouch
      0200008CH   SYMBOL    PDATA    CHAR      boIsDeviceWorkWithTouch
      0200008DH   SYMBOL    PDATA    BYTE      ucDeviceAutoOff_TenMin2
      0200008EH   SYMBOL    PDATA    BYTE      enDeviceAppState
      0200008FH   SYMBOL    PDATA    WORD      usDeviceAutoOff_TenMin1
      02000091H   SYMBOL    PDATA    BYTE      enDeviceAppModus
      02000092H   SYMBOL    PDATA    BYTE      ucMotorMode

      01001913H   BLOCK     CODE     ---       LVL=0
      01001913H   LINE      CODE     ---       #39
      01001913H   LINE      CODE     ---       #40
      01001913H   LINE      CODE     ---       #41
      01001917H   LINE      CODE     ---       #42
      ---         BLOCKEND  ---      ---       LVL=0

      01001858H   BLOCK     CODE     ---       LVL=0
      00000007H   SYMBOL    DATA     BYTE      enAppState
      01001858H   LINE      CODE     ---       #52
      01001858H   LINE      CODE     ---       #53
      01001858H   LINE      CODE     ---       #54
      0100185EH   LINE      CODE     ---       #55
      0100185EH   LINE      CODE     ---       #57
      0100185EH   LINE      CODE     ---       #59
      01001862H   LINE      CODE     ---       #62
      ---         BLOCKEND  ---      ---       LVL=0

      01001918H   BLOCK     CODE     ---       LVL=0
      01001918H   LINE      CODE     ---       #71
      01001918H   LINE      CODE     ---       #72
      01001918H   LINE      CODE     ---       #73
      0100191CH   LINE      CODE     ---       #74
      ---         BLOCKEND  ---      ---       LVL=0

      01001863H   BLOCK     CODE     ---       LVL=0
      00000007H   SYMBOL    DATA     BYTE      enAppModus
      01001863H   LINE      CODE     ---       #84
      01001863H   LINE      CODE     ---       #85
      01001863H   LINE      CODE     ---       #86
      01001869H   LINE      CODE     ---       #87
      01001869H   LINE      CODE     ---       #89
      01001869H   LINE      CODE     ---       #91
      0100186DH   LINE      CODE     ---       #94
      ---         BLOCKEND  ---      ---       LVL=0

      0100191DH   BLOCK     CODE     ---       LVL=0
      0100191DH   LINE      CODE     ---       #103
      0100191DH   LINE      CODE     ---       #104
      0100191DH   LINE      CODE     ---       #105
LX51 LINKER/LOCATER V4.66.41.0                                                        03/10/2021  14:40:17  PAGE 47


      01001921H   LINE      CODE     ---       #106
      ---         BLOCKEND  ---      ---       LVL=0

      01001605H   BLOCK     CODE     ---       LVL=0
      01001605H   LINE      CODE     ---       #116
      01001605H   LINE      CODE     ---       #117
      01001605H   LINE      CODE     ---       #118
      0100160BH   LINE      CODE     ---       #119
      0100160BH   LINE      CODE     ---       #120
      0100160FH   LINE      CODE     ---       #121
      01001613H   LINE      CODE     ---       #124
      01001613H   LINE      CODE     ---       #126
      0100161BH   LINE      CODE     ---       #127
      0100161BH   LINE      CODE     ---       #128
      0100161EH   LINE      CODE     ---       #129
      01001620H   LINE      CODE     ---       #131
      01001620H   LINE      CODE     ---       #132
      01001625H   LINE      CODE     ---       #133
      01001625H   LINE      CODE     ---       #134
      01001628H   LINE      CODE     ---       #137
      ---         BLOCKEND  ---      ---       LVL=0

      01001704H   BLOCK     CODE     ---       LVL=0
      01001704H   LINE      CODE     ---       #147
      01001704H   LINE      CODE     ---       #148
      01001704H   LINE      CODE     ---       #149
      0100170AH   LINE      CODE     ---       #150
      0100170AH   LINE      CODE     ---       #151
      0100170CH   LINE      CODE     ---       #152
      0100170EH   LINE      CODE     ---       #153
      01001714H   LINE      CODE     ---       #154
      01001714H   LINE      CODE     ---       #155
      01001719H   LINE      CODE     ---       #156
      01001719H   LINE      CODE     ---       #158
      0100171EH   LINE      CODE     ---       #161
      ---         BLOCKEND  ---      ---       LVL=0

      01000D0EH   BLOCK     CODE     ---       LVL=0
      01000D0EH   BLOCK     CODE     NEAR LAB  LVL=1
      0200004DH   SYMBOL    PDATA    BYTE      ucPATDutyTemp
      0200004EH   SYMBOL    PDATA    BYTE      ucVIBDutyTemp
      ---         BLOCKEND  ---      ---       LVL=1
      01000D0EH   LINE      CODE     ---       #170
      01000D0EH   LINE      CODE     ---       #171
      01000D0EH   LINE      CODE     ---       #172
      01000D12H   LINE      CODE     ---       #173
      01000D14H   LINE      CODE     ---       #175
      01000D17H   LINE      CODE     ---       #177
      01000D35H   LINE      CODE     ---       #180
      01000D35H   LINE      CODE     ---       #182
      01000D35H   LINE      CODE     ---       #188
      01000D3BH   LINE      CODE     ---       #190
      01000D3BH   LINE      CODE     ---       #191
      01000D40H   LINE      CODE     ---       #192
      01000D45H   LINE      CODE     ---       #195
      01000D45H   LINE      CODE     ---       #197
      01000D50H   LINE      CODE     ---       #198
      01000D50H   LINE      CODE     ---       #199
      01000D53H   LINE      CODE     ---       #201
      01000D5AH   LINE      CODE     ---       #202
      01000D61H   LINE      CODE     ---       #204
      01000D67H   LINE      CODE     ---       #205
      01000D67H   LINE      CODE     ---       #207
      01000D6DH   LINE      CODE     ---       #208
      01000D6DH   LINE      CODE     ---       #209
LX51 LINKER/LOCATER V4.66.41.0                                                        03/10/2021  14:40:17  PAGE 48


      01000D6DH   LINE      CODE     ---       #210
      01000D6DH   LINE      CODE     ---       #211
      01000D6FH   LINE      CODE     ---       #212
      01000D75H   LINE      CODE     ---       #213
      01000D75H   LINE      CODE     ---       #214
      01000D7CH   LINE      CODE     ---       #215
      01000D7DH   LINE      CODE     ---       #216
      01000D7FH   LINE      CODE     ---       #217
      01000D87H   LINE      CODE     ---       #218
      01000D87H   LINE      CODE     ---       #219
      01000D8BH   LINE      CODE     ---       #220
      01000D8EH   LINE      CODE     ---       #221
      01000D8EH   LINE      CODE     ---       #222
      01000D90H   LINE      CODE     ---       #223
      01000D96H   LINE      CODE     ---       #224
      01000D96H   LINE      CODE     ---       #225
      01000D9DH   LINE      CODE     ---       #226
      01000DA4H   LINE      CODE     ---       #227
      01000DA4H   LINE      CODE     ---       #228
      01000DA4H   LINE      CODE     ---       #230
      01000DA4H   LINE      CODE     ---       #231
      01000DA9H   LINE      CODE     ---       #232
      01000DAEH   LINE      CODE     ---       #234
      01000DB1H   LINE      CODE     ---       #235
      01000DB1H   LINE      CODE     ---       #237
      ---         BLOCKEND  ---      ---       LVL=0

      010011E3H   BLOCK     CODE     ---       LVL=0
      010011E3H   LINE      CODE     ---       #247
      010011E3H   LINE      CODE     ---       #248
      010011E3H   LINE      CODE     ---       #250
      010011F3H   LINE      CODE     ---       #252
      010011F3H   LINE      CODE     ---       #254
      010011F3H   LINE      CODE     ---       #256
      010011F6H   LINE      CODE     ---       #257
      010011F6H   LINE      CODE     ---       #258
      010011FCH   LINE      CODE     ---       #259
      010011FCH   LINE      CODE     ---       #260
      01001201H   LINE      CODE     ---       #261
      01001207H   LINE      CODE     ---       #262
      01001209H   LINE      CODE     ---       #264
      01001211H   LINE      CODE     ---       #265
      01001211H   LINE      CODE     ---       #266
      01001211H   LINE      CODE     ---       #268
      01001211H   LINE      CODE     ---       #269
      01001213H   LINE      CODE     ---       #271
      01001213H   LINE      CODE     ---       #272
      01001217H   LINE      CODE     ---       #273
      01001219H   LINE      CODE     ---       #274
      0100121EH   LINE      CODE     ---       #275
      01001222H   LINE      CODE     ---       #277
      01001238H   LINE      CODE     ---       #278
      01001238H   LINE      CODE     ---       #279
      0100123BH   LINE      CODE     ---       #281
      0100123BH   LINE      CODE     ---       #282
      0100123BH   LINE      CODE     ---       #283
      0100123BH   LINE      CODE     ---       #286
      ---         BLOCKEND  ---      ---       LVL=0

      01001323H   BLOCK     CODE     ---       LVL=0
      01001323H   LINE      CODE     ---       #295
      01001323H   LINE      CODE     ---       #296
      01001323H   LINE      CODE     ---       #297
      01001329H   LINE      CODE     ---       #298
      01001329H   LINE      CODE     ---       #299
LX51 LINKER/LOCATER V4.66.41.0                                                        03/10/2021  14:40:17  PAGE 49


      01001334H   LINE      CODE     ---       #300
      01001348H   LINE      CODE     ---       #301
      01001348H   LINE      CODE     ---       #302
      0100134DH   LINE      CODE     ---       #303
      01001353H   LINE      CODE     ---       #304
      01001353H   LINE      CODE     ---       #305
      01001354H   LINE      CODE     ---       #306
      0100135AH   LINE      CODE     ---       #307
      0100135AH   LINE      CODE     ---       #308
      01001364H   LINE      CODE     ---       #309
      01001364H   LINE      CODE     ---       #311
      ---         BLOCKEND  ---      ---       LVL=0

      010017CCH   BLOCK     CODE     ---       LVL=0
      010017CCH   LINE      CODE     ---       #320
      010017CCH   LINE      CODE     ---       #321
      010017CCH   LINE      CODE     ---       #322
      010017D0H   LINE      CODE     ---       #323
      010017D2H   LINE      CODE     ---       #324
      010017D7H   LINE      CODE     ---       #325
      010017DAH   LINE      CODE     ---       #326
      010017DFH   LINE      CODE     ---       #329
      ---         BLOCKEND  ---      ---       LVL=0

      ---         MODULE    ---      ---       DRV_ADC
      00000020H.2 PUBLIC    BIT      BIT       AdcFlag
      01001927H   PUBLIC    CODE     ---       ADC_Stop
      010012DCH   PUBLIC    CODE     ---       _ADCPhysicalVoltage
      01000EF2H   PUBLIC    CODE     ---       _ADC_Sample
      010018E8H   PUBLIC    CODE     ---       ADC_Interrupt
      0100123CH   PUBLIC    CODE     ---       _ADC_Init
      000000FFH   SFRSYM    DATA     BYTE      OPREG
      00000080H   SFRSYM    DATA     BYTE      P0
      00000090H   SFRSYM    DATA     BYTE      P1
      000000A0H   SFRSYM    DATA     BYTE      P2
      000000A8H.4 SFRSYM    DATA     BIT       EUART
      0000008EH   SFRSYM    DATA     BYTE      TMCON
      000000D0H.6 SFRSYM    DATA     BIT       AC
      0000008FH   SFRSYM    DATA     BYTE      OTCON
      000000D8H   SFRSYM    DATA     BYTE      P5
      000000A8H.7 SFRSYM    DATA     BIT       EA
      000000C8H.1 SFRSYM    DATA     BIT       T2
      000000A8H.6 SFRSYM    DATA     BIT       EADC
      000000A8H   SFRSYM    DATA     BYTE      IE
      000000FEH   SFRSYM    DATA     BYTE      OPINX
      000000C8H   SFRSYM    DATA     BIT       CP
      000000C8H.6 SFRSYM    DATA     BIT       EXF2
      000000D5H   SFRSYM    DATA     BYTE      PWMDTY0
      000000D6H   SFRSYM    DATA     BYTE      PWMDTY1
      0000009BH   SFRSYM    DATA     BYTE      P0PH
      000000B8H   SFRSYM    DATA     BYTE      IP
      000000D7H   SFRSYM    DATA     BYTE      PWMDTY2
      00000092H   SFRSYM    DATA     BYTE      P1PH
      00000098H   SFRSYM    DATA     BIT       RI
      000000A2H   SFRSYM    DATA     BYTE      P2PH
      000000D0H.7 SFRSYM    DATA     BIT       CY
      00000098H.1 SFRSYM    DATA     BIT       TI
      000000B8H.1 SFRSYM    DATA     BIT       IPT0
      000000DAH   SFRSYM    DATA     BYTE      P5PH
      000000B8H.3 SFRSYM    DATA     BIT       IPT1
      000000B8H.5 SFRSYM    DATA     BIT       IPT2
      000000CBH   SFRSYM    DATA     BYTE      RCAP2H
      00000081H   SFRSYM    DATA     BYTE      SP
      000000D0H.2 SFRSYM    DATA     BIT       OV
      000000F4H   SFRSYM    DATA     BYTE      IAPADE
LX51 LINKER/LOCATER V4.66.41.0                                                        03/10/2021  14:40:17  PAGE 50


      0000009CH   SFRSYM    DATA     BYTE      P0VO
      000000CAH   SFRSYM    DATA     BYTE      RCAP2L
      000000F3H   SFRSYM    DATA     BYTE      IAPADH
      000000D4H   SFRSYM    DATA     BYTE      PWMDTYA
      000000ADH   SFRSYM    DATA     BYTE      ADCCON
      000000C8H.5 SFRSYM    DATA     BIT       RCLK
      000000F2H   SFRSYM    DATA     BYTE      IAPADL
      000000C8H.4 SFRSYM    DATA     BIT       TCLK
      00000080H   SFRSYM    DATA     BIT       P00
      00000090H   SFRSYM    DATA     BIT       P10
      00000080H.1 SFRSYM    DATA     BIT       P01
      00000099H   SFRSYM    DATA     BYTE      SBUF
      00000087H   SFRSYM    DATA     BYTE      PCON
      000000A0H   SFRSYM    DATA     BIT       P20
      00000090H.1 SFRSYM    DATA     BIT       P11
      00000080H.2 SFRSYM    DATA     BIT       P02
      000000A0H.1 SFRSYM    DATA     BIT       P21
      00000090H.2 SFRSYM    DATA     BIT       P12
      00000080H.3 SFRSYM    DATA     BIT       P03
      000000A0H.2 SFRSYM    DATA     BIT       P22
      00000090H.3 SFRSYM    DATA     BIT       P13
      00000080H.4 SFRSYM    DATA     BIT       P04
      00000098H   SFRSYM    DATA     BYTE      SCON
      000000D8H   SFRSYM    DATA     BIT       P50
      000000A0H.3 SFRSYM    DATA     BIT       P23
      00000090H.4 SFRSYM    DATA     BIT       P14
      00000080H.5 SFRSYM    DATA     BIT       P05
      000000F5H   SFRSYM    DATA     BYTE      IAPDAT
      00000088H   SFRSYM    DATA     BYTE      TCON
      00000089H   SFRSYM    DATA     BYTE      TMOD
      000000D8H.1 SFRSYM    DATA     BIT       P51
      000000A0H.4 SFRSYM    DATA     BIT       P24
      00000090H.5 SFRSYM    DATA     BIT       P15
      00000080H.6 SFRSYM    DATA     BIT       P06
      000000B8H   SFRSYM    DATA     BIT       IPINT0
      000000A0H.5 SFRSYM    DATA     BIT       P25
      00000090H.6 SFRSYM    DATA     BIT       P16
      00000080H.7 SFRSYM    DATA     BIT       P07
      000000B8H.2 SFRSYM    DATA     BIT       IPINT1
      000000A0H.6 SFRSYM    DATA     BIT       P26
      00000090H.7 SFRSYM    DATA     BIT       P17
      000000A0H.7 SFRSYM    DATA     BIT       P27
      000000F6H   SFRSYM    DATA     BYTE      IAPCTL
      000000A9H   SFRSYM    DATA     BYTE      IE1
      000000F0H   SFRSYM    DATA     BYTE      B
      00000097H   SFRSYM    DATA     BYTE      IOHCON
      000000F1H   SFRSYM    DATA     BYTE      IAPKEY
      000000CEH   SFRSYM    DATA     BYTE      BTMCON
      000000D1H   SFRSYM    DATA     BYTE      PWMCFG
      000000E0H   SFRSYM    DATA     BYTE      ACC
      000000A8H.1 SFRSYM    DATA     BIT       ET0
      00000088H.5 SFRSYM    DATA     BIT       TF0
      000000A8H.3 SFRSYM    DATA     BIT       ET1
      000000ABH   SFRSYM    DATA     BYTE      ADCCFG0
      000000B9H   SFRSYM    DATA     BYTE      IP1
      00000088H.7 SFRSYM    DATA     BIT       TF1
      000000A8H.5 SFRSYM    DATA     BIT       ET2
      000000ACH   SFRSYM    DATA     BYTE      ADCCFG1
      00000098H.2 SFRSYM    DATA     BIT       RB8
      000000C8H.7 SFRSYM    DATA     BIT       TF2
      0000008CH   SFRSYM    DATA     BYTE      TH0
      0000008DH   SFRSYM    DATA     BYTE      TH1
      00000098H.3 SFRSYM    DATA     BIT       TB8
      000000CDH   SFRSYM    DATA     BYTE      TH2
      000000D0H   SFRSYM    DATA     BIT       P
LX51 LINKER/LOCATER V4.66.41.0                                                        03/10/2021  14:40:17  PAGE 51


      00000098H.7 SFRSYM    DATA     BIT       SM0
      0000008AH   SFRSYM    DATA     BYTE      TL0
      00000098H.6 SFRSYM    DATA     BIT       SM1
      000000CFH   SFRSYM    DATA     BYTE      WDTCON
      0000008BH   SFRSYM    DATA     BYTE      TL1
      00000098H.5 SFRSYM    DATA     BIT       SM2
      000000CCH   SFRSYM    DATA     BYTE      TL2
      000000D0H.3 SFRSYM    DATA     BIT       RS0
      00000088H.4 SFRSYM    DATA     BIT       TR0
      000000D0H.4 SFRSYM    DATA     BIT       RS1
      000000D2H   SFRSYM    DATA     BYTE      PWMCON
      00000088H.6 SFRSYM    DATA     BIT       TR1
      000000B8H.4 SFRSYM    DATA     BIT       IPUART
      000000C8H.2 SFRSYM    DATA     BIT       TR2
      000000D3H   SFRSYM    DATA     BYTE      PWMPRD
      00000083H   SFRSYM    DATA     BYTE      DPH
      00000082H   SFRSYM    DATA     BYTE      DPL
      000000A8H   SFRSYM    DATA     BIT       EINT0
      0000009AH   SFRSYM    DATA     BYTE      P0CON
      000000A8H.2 SFRSYM    DATA     BIT       EINT1
      000000B8H.6 SFRSYM    DATA     BIT       IPADC
      000000BAH   SFRSYM    DATA     BYTE      INT0F
      00000091H   SFRSYM    DATA     BYTE      P1CON
      000000C8H.3 SFRSYM    DATA     BIT       EXEN2
      000000BCH   SFRSYM    DATA     BYTE      INT1F
      000000A1H   SFRSYM    DATA     BYTE      P2CON
      000000C6H   SFRSYM    DATA     BYTE      INT2F
      00000098H.4 SFRSYM    DATA     BIT       REN
      000000D9H   SFRSYM    DATA     BYTE      P5CON
      000000AFH   SFRSYM    DATA     BYTE      ADCVH
      000000C9H   SFRSYM    DATA     BYTE      T2MOD
      000000C8H   SFRSYM    DATA     BYTE      T2CON
      000000AEH   SFRSYM    DATA     BYTE      ADCVL
      000000BBH   SFRSYM    DATA     BYTE      INT0R
      000000BDH   SFRSYM    DATA     BYTE      INT1R
      000000C7H   SFRSYM    DATA     BYTE      INT2R
      000000D0H.5 SFRSYM    DATA     BIT       F0
      000000D0H.1 SFRSYM    DATA     BIT       F1
      000000D0H   SFRSYM    DATA     BYTE      PSW

      0100123CH   BLOCK     CODE     ---       LVL=0
      00000007H   SYMBOL    DATA     BYTE      Channel
      0100123CH   LINE      CODE     ---       #64
      0100123CH   LINE      CODE     ---       #65
      0100123CH   LINE      CODE     ---       #68
      01001245H   LINE      CODE     ---       #70
      01001245H   LINE      CODE     ---       #71
      01001248H   LINE      CODE     ---       #73
      0100124BH   LINE      CODE     ---       #74
      0100124CH   LINE      CODE     ---       #75
      0100124DH   LINE      CODE     ---       #76
      0100124FH   LINE      CODE     ---       #77
      01001253H   LINE      CODE     ---       #78
      01001253H   LINE      CODE     ---       #79
      01001256H   LINE      CODE     ---       #80
      01001259H   LINE      CODE     ---       #81
      0100125AH   LINE      CODE     ---       #82
      0100125BH   LINE      CODE     ---       #83
      0100125BH   LINE      CODE     ---       #85
      01001260H   LINE      CODE     ---       #86
      01001266H   LINE      CODE     ---       #87
      01001266H   LINE      CODE     ---       #88
      01001273H   LINE      CODE     ---       #89
      01001275H   LINE      CODE     ---       #91
      01001275H   LINE      CODE     ---       #92
LX51 LINKER/LOCATER V4.66.41.0                                                        03/10/2021  14:40:17  PAGE 52


      01001286H   LINE      CODE     ---       #93
      01001286H   LINE      CODE     ---       #96
      01001289H   LINE      CODE     ---       #97
      0100128BH   LINE      CODE     ---       #100
      ---         BLOCKEND  ---      ---       LVL=0

      010018E8H   BLOCK     CODE     ---       LVL=0
      010018E8H   LINE      CODE     ---       #110
      010018E8H   LINE      CODE     ---       #112
      010018EBH   LINE      CODE     ---       #113
      010018EDH   LINE      CODE     ---       #114
      ---         BLOCKEND  ---      ---       LVL=0

      01000EF2H   BLOCK     CODE     ---       LVL=0
      00000007H   SYMBOL    DATA     BYTE      Channel
      01000EF2H   BLOCK     CODE     NEAR LAB  LVL=1
      00000005H   SYMBOL    DATA     BYTE      ucLoop
      02000066H   SYMBOL    PDATA    WORD      uiAdcValue
      02000068H   SYMBOL    PDATA    WORD      usMinAd
      0200006AH   SYMBOL    PDATA    WORD      usMaxAd
      00000002H   SYMBOL    DATA     WORD      ADCValue
      ---         BLOCKEND  ---      ---       LVL=1
      01000EF2H   LINE      CODE     ---       #124
      01000EF2H   LINE      CODE     ---       #125
      01000EF2H   LINE      CODE     ---       #126
      01000EF4H   LINE      CODE     ---       #127
      01000EF9H   LINE      CODE     ---       #128
      01000F01H   LINE      CODE     ---       #129
      01000F06H   LINE      CODE     ---       #130
      01000F08H   LINE      CODE     ---       #132
      01000F0BH   LINE      CODE     ---       #134
      01000F0BH   LINE      CODE     ---       #135
      01000F0BH   LINE      CODE     ---       #137
      01000F0EH   LINE      CODE     ---       #138
      01000F11H   LINE      CODE     ---       #139
      01000F13H   LINE      CODE     ---       #140
      01000F28H   LINE      CODE     ---       #142
      01000F32H   LINE      CODE     ---       #143
      01000F32H   LINE      CODE     ---       #144
      01000F37H   LINE      CODE     ---       #145
      01000F37H   LINE      CODE     ---       #146
      01000F41H   LINE      CODE     ---       #147
      01000F41H   LINE      CODE     ---       #148
      01000F46H   LINE      CODE     ---       #149
      01000F46H   LINE      CODE     ---       #150
      01000F4FH   LINE      CODE     ---       #151
      01000F54H   LINE      CODE     ---       #153
      01000F69H   LINE      CODE     ---       #154
      01000F7AH   LINE      CODE     ---       #155
      01000F8FH   LINE      CODE     ---       #160
      01000F8FH   LINE      CODE     ---       #161
      ---         BLOCKEND  ---      ---       LVL=0

      010012DCH   BLOCK     CODE     ---       LVL=0
      00000003H   SYMBOL    DATA     BYTE      ADC_chanel
      010012DEH   BLOCK     CODE     NEAR LAB  LVL=1
      02000055H   SYMBOL    PDATA    DWORD     ulAdcSampleValue
      00000006H   SYMBOL    DATA     WORD      usADCPhysicalVoltage
      ---         BLOCKEND  ---      ---       LVL=1
      010012DCH   LINE      CODE     ---       #173
      010012DEH   LINE      CODE     ---       #174
      010012DEH   LINE      CODE     ---       #176
      010012E7H   LINE      CODE     ---       #177
      010012E9H   LINE      CODE     ---       #179
      010012F6H   LINE      CODE     ---       #180
LX51 LINKER/LOCATER V4.66.41.0                                                        03/10/2021  14:40:17  PAGE 53


      01001322H   LINE      CODE     ---       #186
      01001322H   LINE      CODE     ---       #187
      ---         BLOCKEND  ---      ---       LVL=0

      01001927H   BLOCK     CODE     ---       LVL=0
      01001927H   LINE      CODE     ---       #197
      01001927H   LINE      CODE     ---       #198
      01001927H   LINE      CODE     ---       #199
      0100192AH   LINE      CODE     ---       #202
      ---         BLOCKEND  ---      ---       LVL=0

      ---         MODULE    ---      ---       DRV_GPIO
      010018DAH   PUBLIC    CODE     ---       ADBatteryPowerSupplyDisable
      010018A1H   PUBLIC    CODE     ---       ADBatteryPowerSupplyEnable
      0100188DH   PUBLIC    CODE     ---       TouchFunctionSwitch
      0100193EH   PUBLIC    CODE     ---       TouchFunctionDisable
      0100193BH   PUBLIC    CODE     ---       TouchFunctionEnable
      010018CBH   PUBLIC    CODE     ---       IsTouchState
      010018C3H   PUBLIC    CODE     ---       IsChargeComplete
      01001938H   PUBLIC    CODE     ---       ChargeFunctionDisable
      01001935H   PUBLIC    CODE     ---       ChargeFunctionEnable
      010018BBH   PUBLIC    CODE     ---       IsChargeDCInput
      01001883H   PUBLIC    CODE     ---       LedBlinkParamemterClear
      0100176DH   PUBLIC    CODE     ---       MinusButtonLongPressedLedBlink
      0100153EH   PUBLIC    CODE     ---       BothPressedLedBlink
      01001753H   PUBLIC    CODE     ---       UpDownPressedLedBlink
      010014B0H   PUBLIC    CODE     ---       _LEDCurrentState
      01001932H   PUBLIC    CODE     ---       LEDFlash
      010018D3H   PUBLIC    CODE     ---       LEDOff
      0100192FH   PUBLIC    CODE     ---       LEDON
      01001804H   PUBLIC    CODE     ---       GPIO_Init
      0100168EH   PUBLIC    CODE     ---       IO_Init
      000000FFH   SFRSYM    DATA     BYTE      OPREG
      00000080H   SFRSYM    DATA     BYTE      P0
      00000090H   SFRSYM    DATA     BYTE      P1
      000000A0H   SFRSYM    DATA     BYTE      P2
      000000A8H.4 SFRSYM    DATA     BIT       EUART
      0000008EH   SFRSYM    DATA     BYTE      TMCON
      000000D0H.6 SFRSYM    DATA     BIT       AC
      0000008FH   SFRSYM    DATA     BYTE      OTCON
      000000D8H   SFRSYM    DATA     BYTE      P5
      000000A8H.7 SFRSYM    DATA     BIT       EA
      000000C8H.1 SFRSYM    DATA     BIT       T2
      000000A8H.6 SFRSYM    DATA     BIT       EADC
      000000A8H   SFRSYM    DATA     BYTE      IE
      000000FEH   SFRSYM    DATA     BYTE      OPINX
      000000C8H   SFRSYM    DATA     BIT       CP
      000000C8H.6 SFRSYM    DATA     BIT       EXF2
      000000D5H   SFRSYM    DATA     BYTE      PWMDTY0
      000000D6H   SFRSYM    DATA     BYTE      PWMDTY1
      0000009BH   SFRSYM    DATA     BYTE      P0PH
      000000B8H   SFRSYM    DATA     BYTE      IP
      000000D7H   SFRSYM    DATA     BYTE      PWMDTY2
      00000092H   SFRSYM    DATA     BYTE      P1PH
      00000098H   SFRSYM    DATA     BIT       RI
      000000A2H   SFRSYM    DATA     BYTE      P2PH
      000000D0H.7 SFRSYM    DATA     BIT       CY
      00000098H.1 SFRSYM    DATA     BIT       TI
      000000B8H.1 SFRSYM    DATA     BIT       IPT0
      000000DAH   SFRSYM    DATA     BYTE      P5PH
      000000B8H.3 SFRSYM    DATA     BIT       IPT1
      000000B8H.5 SFRSYM    DATA     BIT       IPT2
      000000CBH   SFRSYM    DATA     BYTE      RCAP2H
      00000081H   SFRSYM    DATA     BYTE      SP
      000000D0H.2 SFRSYM    DATA     BIT       OV
LX51 LINKER/LOCATER V4.66.41.0                                                        03/10/2021  14:40:17  PAGE 54


      000000F4H   SFRSYM    DATA     BYTE      IAPADE
      0000009CH   SFRSYM    DATA     BYTE      P0VO
      000000CAH   SFRSYM    DATA     BYTE      RCAP2L
      000000F3H   SFRSYM    DATA     BYTE      IAPADH
      000000D4H   SFRSYM    DATA     BYTE      PWMDTYA
      000000ADH   SFRSYM    DATA     BYTE      ADCCON
      000000C8H.5 SFRSYM    DATA     BIT       RCLK
      000000F2H   SFRSYM    DATA     BYTE      IAPADL
      000000C8H.4 SFRSYM    DATA     BIT       TCLK
      00000080H   SFRSYM    DATA     BIT       P00
      00000090H   SFRSYM    DATA     BIT       P10
      00000080H.1 SFRSYM    DATA     BIT       P01
      00000099H   SFRSYM    DATA     BYTE      SBUF
      00000087H   SFRSYM    DATA     BYTE      PCON
      000000A0H   SFRSYM    DATA     BIT       P20
      00000090H.1 SFRSYM    DATA     BIT       P11
      00000080H.2 SFRSYM    DATA     BIT       P02
      000000A0H.1 SFRSYM    DATA     BIT       P21
      00000090H.2 SFRSYM    DATA     BIT       P12
      00000080H.3 SFRSYM    DATA     BIT       P03
      000000A0H.2 SFRSYM    DATA     BIT       P22
      00000090H.3 SFRSYM    DATA     BIT       P13
      00000080H.4 SFRSYM    DATA     BIT       P04
      00000098H   SFRSYM    DATA     BYTE      SCON
      000000D8H   SFRSYM    DATA     BIT       P50
      000000A0H.3 SFRSYM    DATA     BIT       P23
      00000090H.4 SFRSYM    DATA     BIT       P14
      00000080H.5 SFRSYM    DATA     BIT       P05
      000000F5H   SFRSYM    DATA     BYTE      IAPDAT
      00000088H   SFRSYM    DATA     BYTE      TCON
      00000089H   SFRSYM    DATA     BYTE      TMOD
      000000D8H.1 SFRSYM    DATA     BIT       P51
      000000A0H.4 SFRSYM    DATA     BIT       P24
      00000090H.5 SFRSYM    DATA     BIT       P15
      00000080H.6 SFRSYM    DATA     BIT       P06
      000000B8H   SFRSYM    DATA     BIT       IPINT0
      000000A0H.5 SFRSYM    DATA     BIT       P25
      00000090H.6 SFRSYM    DATA     BIT       P16
      00000080H.7 SFRSYM    DATA     BIT       P07
      000000B8H.2 SFRSYM    DATA     BIT       IPINT1
      000000A0H.6 SFRSYM    DATA     BIT       P26
      00000090H.7 SFRSYM    DATA     BIT       P17
      000000A0H.7 SFRSYM    DATA     BIT       P27
      000000F6H   SFRSYM    DATA     BYTE      IAPCTL
      000000A9H   SFRSYM    DATA     BYTE      IE1
      000000F0H   SFRSYM    DATA     BYTE      B
      00000097H   SFRSYM    DATA     BYTE      IOHCON
      000000F1H   SFRSYM    DATA     BYTE      IAPKEY
      000000CEH   SFRSYM    DATA     BYTE      BTMCON
      000000D1H   SFRSYM    DATA     BYTE      PWMCFG
      000000E0H   SFRSYM    DATA     BYTE      ACC
      000000A8H.1 SFRSYM    DATA     BIT       ET0
      00000088H.5 SFRSYM    DATA     BIT       TF0
      000000A8H.3 SFRSYM    DATA     BIT       ET1
      000000ABH   SFRSYM    DATA     BYTE      ADCCFG0
      000000B9H   SFRSYM    DATA     BYTE      IP1
      00000088H.7 SFRSYM    DATA     BIT       TF1
      000000A8H.5 SFRSYM    DATA     BIT       ET2
      000000ACH   SFRSYM    DATA     BYTE      ADCCFG1
      00000098H.2 SFRSYM    DATA     BIT       RB8
      000000C8H.7 SFRSYM    DATA     BIT       TF2
      0000008CH   SFRSYM    DATA     BYTE      TH0
      0000008DH   SFRSYM    DATA     BYTE      TH1
      00000098H.3 SFRSYM    DATA     BIT       TB8
      000000CDH   SFRSYM    DATA     BYTE      TH2
LX51 LINKER/LOCATER V4.66.41.0                                                        03/10/2021  14:40:17  PAGE 55


      000000D0H   SFRSYM    DATA     BIT       P
      00000098H.7 SFRSYM    DATA     BIT       SM0
      0000008AH   SFRSYM    DATA     BYTE      TL0
      00000098H.6 SFRSYM    DATA     BIT       SM1
      000000CFH   SFRSYM    DATA     BYTE      WDTCON
      0000008BH   SFRSYM    DATA     BYTE      TL1
      00000098H.5 SFRSYM    DATA     BIT       SM2
      000000CCH   SFRSYM    DATA     BYTE      TL2
      000000D0H.3 SFRSYM    DATA     BIT       RS0
      00000088H.4 SFRSYM    DATA     BIT       TR0
      000000D0H.4 SFRSYM    DATA     BIT       RS1
      000000D2H   SFRSYM    DATA     BYTE      PWMCON
      00000088H.6 SFRSYM    DATA     BIT       TR1
      000000B8H.4 SFRSYM    DATA     BIT       IPUART
      000000C8H.2 SFRSYM    DATA     BIT       TR2
      000000D3H   SFRSYM    DATA     BYTE      PWMPRD
      00000083H   SFRSYM    DATA     BYTE      DPH
      00000082H   SFRSYM    DATA     BYTE      DPL
      000000A8H   SFRSYM    DATA     BIT       EINT0
      0000009AH   SFRSYM    DATA     BYTE      P0CON
      000000A8H.2 SFRSYM    DATA     BIT       EINT1
      000000B8H.6 SFRSYM    DATA     BIT       IPADC
      000000BAH   SFRSYM    DATA     BYTE      INT0F
      00000091H   SFRSYM    DATA     BYTE      P1CON
      000000C8H.3 SFRSYM    DATA     BIT       EXEN2
      000000BCH   SFRSYM    DATA     BYTE      INT1F
      000000A1H   SFRSYM    DATA     BYTE      P2CON
      000000C6H   SFRSYM    DATA     BYTE      INT2F
      00000098H.4 SFRSYM    DATA     BIT       REN
      000000D9H   SFRSYM    DATA     BYTE      P5CON
      000000AFH   SFRSYM    DATA     BYTE      ADCVH
      000000C9H   SFRSYM    DATA     BYTE      T2MOD
      000000C8H   SFRSYM    DATA     BYTE      T2CON
      000000AEH   SFRSYM    DATA     BYTE      ADCVL
      000000BBH   SFRSYM    DATA     BYTE      INT0R
      000000BDH   SFRSYM    DATA     BYTE      INT1R
      000000C7H   SFRSYM    DATA     BYTE      INT2R
      000000D0H.5 SFRSYM    DATA     BIT       F0
      000000D0H.1 SFRSYM    DATA     BIT       F1
      000000D0H   SFRSYM    DATA     BYTE      PSW
      02000097H   SYMBOL    PDATA    CHAR      boLongPressedLEDBlinkEnable
      02000098H   SYMBOL    PDATA    CHAR      boLEDFlashEnable
      02000099H   SYMBOL    PDATA    CHAR      boLEDBlinkEnable

      0100168EH   BLOCK     CODE     ---       LVL=0
      0100168EH   LINE      CODE     ---       #41
      0100168EH   LINE      CODE     ---       #42
      0100168EH   LINE      CODE     ---       #56
      01001691H   LINE      CODE     ---       #57
      01001694H   LINE      CODE     ---       #59
      01001697H   LINE      CODE     ---       #60
      0100169AH   LINE      CODE     ---       #61
      0100169DH   LINE      CODE     ---       #62
      010016A0H   LINE      CODE     ---       #63
      010016ACH   LINE      CODE     ---       #83
      ---         BLOCKEND  ---      ---       LVL=0

      01001804H   BLOCK     CODE     ---       LVL=0
      01001804H   LINE      CODE     ---       #92
      01001804H   LINE      CODE     ---       #93
      01001804H   LINE      CODE     ---       #94
      01001807H   LINE      CODE     ---       #95
      0100180AH   LINE      CODE     ---       #96
      0100180DH   LINE      CODE     ---       #97
      01001810H   LINE      CODE     ---       #98
LX51 LINKER/LOCATER V4.66.41.0                                                        03/10/2021  14:40:17  PAGE 56


      01001813H   LINE      CODE     ---       #100
      ---         BLOCKEND  ---      ---       LVL=0

      0100192FH   BLOCK     CODE     ---       LVL=0
      0100192FH   LINE      CODE     ---       #110
      0100192FH   LINE      CODE     ---       #111
      0100192FH   LINE      CODE     ---       #112
      01001931H   LINE      CODE     ---       #115
      ---         BLOCKEND  ---      ---       LVL=0

      010018D3H   BLOCK     CODE     ---       LVL=0
      010018D3H   LINE      CODE     ---       #125
      010018D3H   LINE      CODE     ---       #126
      010018D3H   LINE      CODE     ---       #127
      010018D5H   LINE      CODE     ---       #130
      010018D7H   LINE      CODE     ---       #131
      010018D9H   LINE      CODE     ---       #134
      ---         BLOCKEND  ---      ---       LVL=0

      01001932H   BLOCK     CODE     ---       LVL=0
      01001932H   LINE      CODE     ---       #143
      01001932H   LINE      CODE     ---       #144
      01001932H   LINE      CODE     ---       #145
      01001934H   LINE      CODE     ---       #148
      ---         BLOCKEND  ---      ---       LVL=0

      010014B0H   BLOCK     CODE     ---       LVL=0
      00000007H   SYMBOL    DATA     BYTE      ucLedMode
      010014B0H   LINE      CODE     ---       #158
      010014B0H   LINE      CODE     ---       #159
      010014B0H   LINE      CODE     ---       #160
      010014CDH   LINE      CODE     ---       #161
      010014CDH   LINE      CODE     ---       #162
      010014CDH   LINE      CODE     ---       #164
      010014CDH   LINE      CODE     ---       #165
      010014CDH   LINE      CODE     ---       #167
      010014CDH   LINE      CODE     ---       #168
      010014CDH   LINE      CODE     ---       #169
      010014D0H   LINE      CODE     ---       #172
      010014D0H   LINE      CODE     ---       #173
      010014D0H   LINE      CODE     ---       #175
      010014D3H   LINE      CODE     ---       #176
      010014D3H   LINE      CODE     ---       #177
      010014D3H   LINE      CODE     ---       #179
      010014D6H   LINE      CODE     ---       #180
      010014D6H   LINE      CODE     ---       #181
      010014D6H   LINE      CODE     ---       #183
      010014D9H   LINE      CODE     ---       #184
      010014D9H   LINE      CODE     ---       #185
      010014D9H   LINE      CODE     ---       #187
      010014DCH   LINE      CODE     ---       #188
      010014DCH   LINE      CODE     ---       #189
      010014DCH   LINE      CODE     ---       #191
      010014DFH   LINE      CODE     ---       #192
      010014DFH   LINE      CODE     ---       #194
      010014DFH   LINE      CODE     ---       #196
      010014DFH   LINE      CODE     ---       #197
      010014DFH   LINE      CODE     ---       #199
      ---         BLOCKEND  ---      ---       LVL=0

      01001753H   BLOCK     CODE     ---       LVL=0
      01001753H   LINE      CODE     ---       #210
      01001753H   LINE      CODE     ---       #211
      01001753H   LINE      CODE     ---       #212
      0100175AH   LINE      CODE     ---       #213
LX51 LINKER/LOCATER V4.66.41.0                                                        03/10/2021  14:40:17  PAGE 57


      0100175AH   LINE      CODE     ---       #215
      0100175AH   LINE      CODE     ---       #216
      0100175DH   LINE      CODE     ---       #217
      01001764H   LINE      CODE     ---       #218
      01001767H   LINE      CODE     ---       #219
      0100176CH   LINE      CODE     ---       #221
      ---         BLOCKEND  ---      ---       LVL=0

      0100153EH   BLOCK     CODE     ---       LVL=0
      0100153EH   BLOCK     CODE     NEAR LAB  LVL=1
      02000050H   SYMBOL    PDATA    BYTE      ucLoop
      ---         BLOCKEND  ---      ---       LVL=1
      0100153EH   LINE      CODE     ---       #230
      0100153EH   LINE      CODE     ---       #231
      0100153EH   LINE      CODE     ---       #232
      01001542H   LINE      CODE     ---       #233
      01001547H   LINE      CODE     ---       #234
      01001547H   LINE      CODE     ---       #236
      01001547H   LINE      CODE     ---       #237
      0100154FH   LINE      CODE     ---       #238
      0100154FH   LINE      CODE     ---       #239
      01001552H   LINE      CODE     ---       #240
      01001559H   LINE      CODE     ---       #241
      01001560H   LINE      CODE     ---       #242
      01001563H   LINE      CODE     ---       #243
      01001568H   LINE      CODE     ---       #246
      ---         BLOCKEND  ---      ---       LVL=0

      0100176DH   BLOCK     CODE     ---       LVL=0
      0100176DH   LINE      CODE     ---       #255
      0100176DH   LINE      CODE     ---       #256
      0100176DH   LINE      CODE     ---       #257
      01001774H   LINE      CODE     ---       #258
      01001774H   LINE      CODE     ---       #260
      01001774H   LINE      CODE     ---       #261
      01001777H   LINE      CODE     ---       #262
      0100177EH   LINE      CODE     ---       #263
      01001781H   LINE      CODE     ---       #264
      01001786H   LINE      CODE     ---       #266
      ---         BLOCKEND  ---      ---       LVL=0

      01001883H   BLOCK     CODE     ---       LVL=0
      01001883H   LINE      CODE     ---       #275
      01001883H   LINE      CODE     ---       #276
      01001883H   LINE      CODE     ---       #277
      01001887H   LINE      CODE     ---       #278
      01001889H   LINE      CODE     ---       #279
      0100188CH   LINE      CODE     ---       #282
      ---         BLOCKEND  ---      ---       LVL=0

      010018BBH   BLOCK     CODE     ---       LVL=0
      010018BBH   LINE      CODE     ---       #293
      010018BBH   LINE      CODE     ---       #294
      010018BBH   LINE      CODE     ---       #296
      010018C0H   LINE      CODE     ---       #297
      010018C0H   LINE      CODE     ---       #298
      010018C2H   LINE      CODE     ---       #299
      010018C2H   LINE      CODE     ---       #301
      010018C2H   LINE      CODE     ---       #302
      ---         BLOCKEND  ---      ---       LVL=0

      01001935H   BLOCK     CODE     ---       LVL=0
      01001935H   LINE      CODE     ---       #312
      01001935H   LINE      CODE     ---       #313
      01001935H   LINE      CODE     ---       #314
LX51 LINKER/LOCATER V4.66.41.0                                                        03/10/2021  14:40:17  PAGE 58


      01001937H   LINE      CODE     ---       #317
      ---         BLOCKEND  ---      ---       LVL=0

      01001938H   BLOCK     CODE     ---       LVL=0
      01001938H   LINE      CODE     ---       #327
      01001938H   LINE      CODE     ---       #328
      01001938H   LINE      CODE     ---       #329
      0100193AH   LINE      CODE     ---       #332
      ---         BLOCKEND  ---      ---       LVL=0

      010018C3H   BLOCK     CODE     ---       LVL=0
      010018C3H   LINE      CODE     ---       #343
      010018C3H   LINE      CODE     ---       #344
      010018C3H   LINE      CODE     ---       #345
      010018C8H   LINE      CODE     ---       #346
      010018C8H   LINE      CODE     ---       #347
      010018CAH   LINE      CODE     ---       #348
      010018CAH   LINE      CODE     ---       #350
      010018CAH   LINE      CODE     ---       #351
      ---         BLOCKEND  ---      ---       LVL=0

      010018CBH   BLOCK     CODE     ---       LVL=0
      010018CBH   LINE      CODE     ---       #362
      010018CBH   LINE      CODE     ---       #363
      010018CBH   LINE      CODE     ---       #364
      010018D0H   LINE      CODE     ---       #365
      010018D0H   LINE      CODE     ---       #366
      010018D2H   LINE      CODE     ---       #367
      010018D2H   LINE      CODE     ---       #369
      010018D2H   LINE      CODE     ---       #370
      ---         BLOCKEND  ---      ---       LVL=0

      0100193BH   BLOCK     CODE     ---       LVL=0
      0100193BH   LINE      CODE     ---       #380
      0100193BH   LINE      CODE     ---       #381
      0100193BH   LINE      CODE     ---       #382
      0100193DH   LINE      CODE     ---       #385
      ---         BLOCKEND  ---      ---       LVL=0

      0100193EH   BLOCK     CODE     ---       LVL=0
      0100193EH   LINE      CODE     ---       #395
      0100193EH   LINE      CODE     ---       #396
      0100193EH   LINE      CODE     ---       #397
      01001940H   LINE      CODE     ---       #400
      ---         BLOCKEND  ---      ---       LVL=0

      0100188DH   BLOCK     CODE     ---       LVL=0
      0100188DH   LINE      CODE     ---       #410
      0100188DH   LINE      CODE     ---       #411
      0100188DH   LINE      CODE     ---       #412
      01001890H   LINE      CODE     ---       #413
      01001890H   LINE      CODE     ---       #414
      01001893H   LINE      CODE     ---       #416
      01001893H   LINE      CODE     ---       #418
      01001893H   LINE      CODE     ---       #419
      01001896H   LINE      CODE     ---       #421
      01001896H   LINE      CODE     ---       #423
      ---         BLOCKEND  ---      ---       LVL=0

      010018A1H   BLOCK     CODE     ---       LVL=0
      010018A1H   LINE      CODE     ---       #432
      010018A1H   LINE      CODE     ---       #433
      010018A1H   LINE      CODE     ---       #434
      010018A4H   LINE      CODE     ---       #435
      010018A7H   LINE      CODE     ---       #437
LX51 LINKER/LOCATER V4.66.41.0                                                        03/10/2021  14:40:17  PAGE 59


      010018A9H   LINE      CODE     ---       #440
      ---         BLOCKEND  ---      ---       LVL=0

      010018DAH   BLOCK     CODE     ---       LVL=0
      010018DAH   LINE      CODE     ---       #450
      010018DAH   LINE      CODE     ---       #451
      010018DAH   LINE      CODE     ---       #454
      010018DDH   LINE      CODE     ---       #455
      010018E0H   LINE      CODE     ---       #459
      ---         BLOCKEND  ---      ---       LVL=0

      ---         MODULE    ---      ---       DRV_PWM
      010018AAH   PUBLIC    CODE     ---       PWM_Stop
      010018F4H   PUBLIC    CODE     ---       VIBMotorDutyCycleRegisterValueGet
      010018EEH   PUBLIC    CODE     ---       PATMotorDutyCycleRegisterValueGet
      010015B9H   PUBLIC    CODE     ---       _VIBMotorDutySet
      01001593H   PUBLIC    CODE     ---       _PATMotorDutySet
      01001944H   PUBLIC    CODE     ---       PWMInt
      01001943H   PUBLIC    CODE     ---       PWM_Init
      000000FFH   SFRSYM    DATA     BYTE      OPREG
      00000080H   SFRSYM    DATA     BYTE      P0
      00000090H   SFRSYM    DATA     BYTE      P1
      000000A0H   SFRSYM    DATA     BYTE      P2
      000000A8H.4 SFRSYM    DATA     BIT       EUART
      0000008EH   SFRSYM    DATA     BYTE      TMCON
      000000D0H.6 SFRSYM    DATA     BIT       AC
      0000008FH   SFRSYM    DATA     BYTE      OTCON
      000000D8H   SFRSYM    DATA     BYTE      P5
      000000A8H.7 SFRSYM    DATA     BIT       EA
      000000C8H.1 SFRSYM    DATA     BIT       T2
      000000A8H.6 SFRSYM    DATA     BIT       EADC
      000000A8H   SFRSYM    DATA     BYTE      IE
      000000FEH   SFRSYM    DATA     BYTE      OPINX
      000000C8H   SFRSYM    DATA     BIT       CP
      000000C8H.6 SFRSYM    DATA     BIT       EXF2
      000000D5H   SFRSYM    DATA     BYTE      PWMDTY0
      000000D6H   SFRSYM    DATA     BYTE      PWMDTY1
      0000009BH   SFRSYM    DATA     BYTE      P0PH
      000000B8H   SFRSYM    DATA     BYTE      IP
      000000D7H   SFRSYM    DATA     BYTE      PWMDTY2
      00000092H   SFRSYM    DATA     BYTE      P1PH
      00000098H   SFRSYM    DATA     BIT       RI
      000000A2H   SFRSYM    DATA     BYTE      P2PH
      000000D0H.7 SFRSYM    DATA     BIT       CY
      00000098H.1 SFRSYM    DATA     BIT       TI
      000000B8H.1 SFRSYM    DATA     BIT       IPT0
      000000DAH   SFRSYM    DATA     BYTE      P5PH
      000000B8H.3 SFRSYM    DATA     BIT       IPT1
      000000B8H.5 SFRSYM    DATA     BIT       IPT2
      000000CBH   SFRSYM    DATA     BYTE      RCAP2H
      00000081H   SFRSYM    DATA     BYTE      SP
      000000D0H.2 SFRSYM    DATA     BIT       OV
      000000F4H   SFRSYM    DATA     BYTE      IAPADE
      0000009CH   SFRSYM    DATA     BYTE      P0VO
      000000CAH   SFRSYM    DATA     BYTE      RCAP2L
      000000F3H   SFRSYM    DATA     BYTE      IAPADH
      000000D4H   SFRSYM    DATA     BYTE      PWMDTYA
      000000ADH   SFRSYM    DATA     BYTE      ADCCON
      000000C8H.5 SFRSYM    DATA     BIT       RCLK
      000000F2H   SFRSYM    DATA     BYTE      IAPADL
      000000C8H.4 SFRSYM    DATA     BIT       TCLK
      00000080H   SFRSYM    DATA     BIT       P00
      00000090H   SFRSYM    DATA     BIT       P10
      00000080H.1 SFRSYM    DATA     BIT       P01
      00000099H   SFRSYM    DATA     BYTE      SBUF
LX51 LINKER/LOCATER V4.66.41.0                                                        03/10/2021  14:40:17  PAGE 60


      00000087H   SFRSYM    DATA     BYTE      PCON
      000000A0H   SFRSYM    DATA     BIT       P20
      00000090H.1 SFRSYM    DATA     BIT       P11
      00000080H.2 SFRSYM    DATA     BIT       P02
      000000A0H.1 SFRSYM    DATA     BIT       P21
      00000090H.2 SFRSYM    DATA     BIT       P12
      00000080H.3 SFRSYM    DATA     BIT       P03
      000000A0H.2 SFRSYM    DATA     BIT       P22
      00000090H.3 SFRSYM    DATA     BIT       P13
      00000080H.4 SFRSYM    DATA     BIT       P04
      00000098H   SFRSYM    DATA     BYTE      SCON
      000000D8H   SFRSYM    DATA     BIT       P50
      000000A0H.3 SFRSYM    DATA     BIT       P23
      00000090H.4 SFRSYM    DATA     BIT       P14
      00000080H.5 SFRSYM    DATA     BIT       P05
      000000F5H   SFRSYM    DATA     BYTE      IAPDAT
      00000088H   SFRSYM    DATA     BYTE      TCON
      00000089H   SFRSYM    DATA     BYTE      TMOD
      000000D8H.1 SFRSYM    DATA     BIT       P51
      000000A0H.4 SFRSYM    DATA     BIT       P24
      00000090H.5 SFRSYM    DATA     BIT       P15
      00000080H.6 SFRSYM    DATA     BIT       P06
      000000B8H   SFRSYM    DATA     BIT       IPINT0
      000000A0H.5 SFRSYM    DATA     BIT       P25
      00000090H.6 SFRSYM    DATA     BIT       P16
      00000080H.7 SFRSYM    DATA     BIT       P07
      000000B8H.2 SFRSYM    DATA     BIT       IPINT1
      000000A0H.6 SFRSYM    DATA     BIT       P26
      00000090H.7 SFRSYM    DATA     BIT       P17
      000000A0H.7 SFRSYM    DATA     BIT       P27
      000000F6H   SFRSYM    DATA     BYTE      IAPCTL
      000000A9H   SFRSYM    DATA     BYTE      IE1
      000000F0H   SFRSYM    DATA     BYTE      B
      00000097H   SFRSYM    DATA     BYTE      IOHCON
      000000F1H   SFRSYM    DATA     BYTE      IAPKEY
      000000CEH   SFRSYM    DATA     BYTE      BTMCON
      000000D1H   SFRSYM    DATA     BYTE      PWMCFG
      000000E0H   SFRSYM    DATA     BYTE      ACC
      000000A8H.1 SFRSYM    DATA     BIT       ET0
      00000088H.5 SFRSYM    DATA     BIT       TF0
      000000A8H.3 SFRSYM    DATA     BIT       ET1
      000000ABH   SFRSYM    DATA     BYTE      ADCCFG0
      000000B9H   SFRSYM    DATA     BYTE      IP1
      00000088H.7 SFRSYM    DATA     BIT       TF1
      000000A8H.5 SFRSYM    DATA     BIT       ET2
      000000ACH   SFRSYM    DATA     BYTE      ADCCFG1
      00000098H.2 SFRSYM    DATA     BIT       RB8
      000000C8H.7 SFRSYM    DATA     BIT       TF2
      0000008CH   SFRSYM    DATA     BYTE      TH0
      0000008DH   SFRSYM    DATA     BYTE      TH1
      00000098H.3 SFRSYM    DATA     BIT       TB8
      000000CDH   SFRSYM    DATA     BYTE      TH2
      000000D0H   SFRSYM    DATA     BIT       P
      00000098H.7 SFRSYM    DATA     BIT       SM0
      0000008AH   SFRSYM    DATA     BYTE      TL0
      00000098H.6 SFRSYM    DATA     BIT       SM1
      000000CFH   SFRSYM    DATA     BYTE      WDTCON
      0000008BH   SFRSYM    DATA     BYTE      TL1
      00000098H.5 SFRSYM    DATA     BIT       SM2
      000000CCH   SFRSYM    DATA     BYTE      TL2
      000000D0H.3 SFRSYM    DATA     BIT       RS0
      00000088H.4 SFRSYM    DATA     BIT       TR0
      000000D0H.4 SFRSYM    DATA     BIT       RS1
      000000D2H   SFRSYM    DATA     BYTE      PWMCON
      00000088H.6 SFRSYM    DATA     BIT       TR1
LX51 LINKER/LOCATER V4.66.41.0                                                        03/10/2021  14:40:17  PAGE 61


      000000B8H.4 SFRSYM    DATA     BIT       IPUART
      000000C8H.2 SFRSYM    DATA     BIT       TR2
      000000D3H   SFRSYM    DATA     BYTE      PWMPRD
      00000083H   SFRSYM    DATA     BYTE      DPH
      00000082H   SFRSYM    DATA     BYTE      DPL
      000000A8H   SFRSYM    DATA     BIT       EINT0
      0000009AH   SFRSYM    DATA     BYTE      P0CON
      000000A8H.2 SFRSYM    DATA     BIT       EINT1
      000000B8H.6 SFRSYM    DATA     BIT       IPADC
      000000BAH   SFRSYM    DATA     BYTE      INT0F
      00000091H   SFRSYM    DATA     BYTE      P1CON
      000000C8H.3 SFRSYM    DATA     BIT       EXEN2
      000000BCH   SFRSYM    DATA     BYTE      INT1F
      000000A1H   SFRSYM    DATA     BYTE      P2CON
      000000C6H   SFRSYM    DATA     BYTE      INT2F
      00000098H.4 SFRSYM    DATA     BIT       REN
      000000D9H   SFRSYM    DATA     BYTE      P5CON
      000000AFH   SFRSYM    DATA     BYTE      ADCVH
      000000C9H   SFRSYM    DATA     BYTE      T2MOD
      000000C8H   SFRSYM    DATA     BYTE      T2CON
      000000AEH   SFRSYM    DATA     BYTE      ADCVL
      000000BBH   SFRSYM    DATA     BYTE      INT0R
      000000BDH   SFRSYM    DATA     BYTE      INT1R
      000000C7H   SFRSYM    DATA     BYTE      INT2R
      000000D0H.5 SFRSYM    DATA     BIT       F0
      000000D0H.1 SFRSYM    DATA     BIT       F1
      000000D0H   SFRSYM    DATA     BYTE      PSW
      02000093H   SYMBOL    PDATA    WORD      usVIBPWMDutyTimerValue
      02000095H   SYMBOL    PDATA    WORD      usPATPWMDutyTimerValue

      01001943H   BLOCK     CODE     ---       LVL=0
      01001943H   LINE      CODE     ---       #37
      01001943H   LINE      CODE     ---       #38
      01001943H   LINE      CODE     ---       #59
      ---         BLOCKEND  ---      ---       LVL=0

      01001944H   BLOCK     CODE     ---       LVL=0
      01001944H   LINE      CODE     ---       #69
      01001944H   LINE      CODE     ---       #72
      ---         BLOCKEND  ---      ---       LVL=0

      01001593H   BLOCK     CODE     ---       LVL=0
      00000007H   SYMBOL    DATA     BYTE      ucPWMDuty
      01001593H   LINE      CODE     ---       #82
      01001593H   LINE      CODE     ---       #83
      01001593H   LINE      CODE     ---       #86
      01001596H   LINE      CODE     ---       #87
      01001596H   LINE      CODE     ---       #92
      01001598H   LINE      CODE     ---       #93
      0100159EH   LINE      CODE     ---       #95
      0100159EH   LINE      CODE     ---       #97
      0100159EH   LINE      CODE     ---       #98
      010015A1H   LINE      CODE     ---       #99
      010015A1H   LINE      CODE     ---       #100
      010015A3H   LINE      CODE     ---       #101
      010015A3H   LINE      CODE     ---       #102
      010015B8H   LINE      CODE     ---       #103
      010015B8H   LINE      CODE     ---       #120
      ---         BLOCKEND  ---      ---       LVL=0

      010015B9H   BLOCK     CODE     ---       LVL=0
      00000007H   SYMBOL    DATA     BYTE      ucPWMDuty
      010015B9H   LINE      CODE     ---       #130
      010015B9H   LINE      CODE     ---       #131
      010015B9H   LINE      CODE     ---       #134
LX51 LINKER/LOCATER V4.66.41.0                                                        03/10/2021  14:40:17  PAGE 62


      010015BCH   LINE      CODE     ---       #135
      010015BCH   LINE      CODE     ---       #136
      010015BEH   LINE      CODE     ---       #137
      010015C4H   LINE      CODE     ---       #139
      010015C4H   LINE      CODE     ---       #141
      010015C4H   LINE      CODE     ---       #142
      010015C7H   LINE      CODE     ---       #143
      010015C7H   LINE      CODE     ---       #144
      010015C9H   LINE      CODE     ---       #145
      010015C9H   LINE      CODE     ---       #146
      010015DEH   LINE      CODE     ---       #147
      010015DEH   LINE      CODE     ---       #164
      ---         BLOCKEND  ---      ---       LVL=0

      010018EEH   BLOCK     CODE     ---       LVL=0
      010018EEH   LINE      CODE     ---       #174
      010018EEH   LINE      CODE     ---       #175
      010018EEH   LINE      CODE     ---       #177
      010018F3H   LINE      CODE     ---       #189
      ---         BLOCKEND  ---      ---       LVL=0

      010018F4H   BLOCK     CODE     ---       LVL=0
      010018F4H   LINE      CODE     ---       #199
      010018F4H   LINE      CODE     ---       #200
      010018F4H   LINE      CODE     ---       #202
      010018F9H   LINE      CODE     ---       #215
      ---         BLOCKEND  ---      ---       LVL=0

      010018AAH   BLOCK     CODE     ---       LVL=0
      010018AAH   LINE      CODE     ---       #224
      010018AAH   LINE      CODE     ---       #225
      010018AAH   LINE      CODE     ---       #226
      010018ADH   LINE      CODE     ---       #227
      010018ADH   LINE      CODE     ---       #228
      010018AFH   LINE      CODE     ---       #229
      010018AFH   LINE      CODE     ---       #231
      010018B2H   LINE      CODE     ---       #232
      ---         BLOCKEND  ---      ---       LVL=0

      ---         MODULE    ---      ---       DRV_TIMER
      0200009BH   PUBLIC    PDATA    BYTE      ucPATDutyCycleCount
      0200009AH   PUBLIC    PDATA    BYTE      ucVIBDutyCycleCount
      0100150FH   PUBLIC    CODE     ---       VIBMotorTimeRun
      010014E0H   PUBLIC    CODE     ---       PATMotorTimeRun
      0100192BH   PUBLIC    CODE     ---       WatchDogClear
      0100186EH   PUBLIC    CODE     ---       WatchDogStop
      01001897H   PUBLIC    CODE     ---       WatchDogInit
      010016ADH   PUBLIC    CODE     ---       _Delay_ms
      01001365H   PUBLIC    CODE     ---       Timer2Int
      0100128CH   PUBLIC    CODE     ---       timer0
      010015DFH   PUBLIC    CODE     ---       Timer_Init
      000000FFH   SFRSYM    DATA     BYTE      OPREG
      00000080H   SFRSYM    DATA     BYTE      P0
      00000090H   SFRSYM    DATA     BYTE      P1
      000000A0H   SFRSYM    DATA     BYTE      P2
      000000A8H.4 SFRSYM    DATA     BIT       EUART
      0000008EH   SFRSYM    DATA     BYTE      TMCON
      000000D0H.6 SFRSYM    DATA     BIT       AC
      0000008FH   SFRSYM    DATA     BYTE      OTCON
      000000D8H   SFRSYM    DATA     BYTE      P5
      000000A8H.7 SFRSYM    DATA     BIT       EA
      000000C8H.1 SFRSYM    DATA     BIT       T2
      000000A8H.6 SFRSYM    DATA     BIT       EADC
      000000A8H   SFRSYM    DATA     BYTE      IE
      000000FEH   SFRSYM    DATA     BYTE      OPINX
LX51 LINKER/LOCATER V4.66.41.0                                                        03/10/2021  14:40:17  PAGE 63


      000000C8H   SFRSYM    DATA     BIT       CP
      000000C8H.6 SFRSYM    DATA     BIT       EXF2
      000000D5H   SFRSYM    DATA     BYTE      PWMDTY0
      000000D6H   SFRSYM    DATA     BYTE      PWMDTY1
      0000009BH   SFRSYM    DATA     BYTE      P0PH
      000000B8H   SFRSYM    DATA     BYTE      IP
      000000D7H   SFRSYM    DATA     BYTE      PWMDTY2
      00000092H   SFRSYM    DATA     BYTE      P1PH
      00000098H   SFRSYM    DATA     BIT       RI
      000000A2H   SFRSYM    DATA     BYTE      P2PH
      000000D0H.7 SFRSYM    DATA     BIT       CY
      00000098H.1 SFRSYM    DATA     BIT       TI
      000000B8H.1 SFRSYM    DATA     BIT       IPT0
      000000DAH   SFRSYM    DATA     BYTE      P5PH
      000000B8H.3 SFRSYM    DATA     BIT       IPT1
      000000B8H.5 SFRSYM    DATA     BIT       IPT2
      000000CBH   SFRSYM    DATA     BYTE      RCAP2H
      00000081H   SFRSYM    DATA     BYTE      SP
      000000D0H.2 SFRSYM    DATA     BIT       OV
      000000F4H   SFRSYM    DATA     BYTE      IAPADE
      0000009CH   SFRSYM    DATA     BYTE      P0VO
      000000CAH   SFRSYM    DATA     BYTE      RCAP2L
      000000F3H   SFRSYM    DATA     BYTE      IAPADH
      000000D4H   SFRSYM    DATA     BYTE      PWMDTYA
      000000ADH   SFRSYM    DATA     BYTE      ADCCON
      000000C8H.5 SFRSYM    DATA     BIT       RCLK
      000000F2H   SFRSYM    DATA     BYTE      IAPADL
      000000C8H.4 SFRSYM    DATA     BIT       TCLK
      00000080H   SFRSYM    DATA     BIT       P00
      00000090H   SFRSYM    DATA     BIT       P10
      00000080H.1 SFRSYM    DATA     BIT       P01
      00000099H   SFRSYM    DATA     BYTE      SBUF
      00000087H   SFRSYM    DATA     BYTE      PCON
      000000A0H   SFRSYM    DATA     BIT       P20
      00000090H.1 SFRSYM    DATA     BIT       P11
      00000080H.2 SFRSYM    DATA     BIT       P02
      000000A0H.1 SFRSYM    DATA     BIT       P21
      00000090H.2 SFRSYM    DATA     BIT       P12
      00000080H.3 SFRSYM    DATA     BIT       P03
      000000A0H.2 SFRSYM    DATA     BIT       P22
      00000090H.3 SFRSYM    DATA     BIT       P13
      00000080H.4 SFRSYM    DATA     BIT       P04
      00000098H   SFRSYM    DATA     BYTE      SCON
      000000D8H   SFRSYM    DATA     BIT       P50
      000000A0H.3 SFRSYM    DATA     BIT       P23
      00000090H.4 SFRSYM    DATA     BIT       P14
      00000080H.5 SFRSYM    DATA     BIT       P05
      000000F5H   SFRSYM    DATA     BYTE      IAPDAT
      00000088H   SFRSYM    DATA     BYTE      TCON
      00000089H   SFRSYM    DATA     BYTE      TMOD
      000000D8H.1 SFRSYM    DATA     BIT       P51
      000000A0H.4 SFRSYM    DATA     BIT       P24
      00000090H.5 SFRSYM    DATA     BIT       P15
      00000080H.6 SFRSYM    DATA     BIT       P06
      000000B8H   SFRSYM    DATA     BIT       IPINT0
      000000A0H.5 SFRSYM    DATA     BIT       P25
      00000090H.6 SFRSYM    DATA     BIT       P16
      00000080H.7 SFRSYM    DATA     BIT       P07
      000000B8H.2 SFRSYM    DATA     BIT       IPINT1
      000000A0H.6 SFRSYM    DATA     BIT       P26
      00000090H.7 SFRSYM    DATA     BIT       P17
      000000A0H.7 SFRSYM    DATA     BIT       P27
      000000F6H   SFRSYM    DATA     BYTE      IAPCTL
      000000A9H   SFRSYM    DATA     BYTE      IE1
      000000F0H   SFRSYM    DATA     BYTE      B
LX51 LINKER/LOCATER V4.66.41.0                                                        03/10/2021  14:40:17  PAGE 64


      00000097H   SFRSYM    DATA     BYTE      IOHCON
      000000F1H   SFRSYM    DATA     BYTE      IAPKEY
      000000CEH   SFRSYM    DATA     BYTE      BTMCON
      000000D1H   SFRSYM    DATA     BYTE      PWMCFG
      000000E0H   SFRSYM    DATA     BYTE      ACC
      000000A8H.1 SFRSYM    DATA     BIT       ET0
      00000088H.5 SFRSYM    DATA     BIT       TF0
      000000A8H.3 SFRSYM    DATA     BIT       ET1
      000000ABH   SFRSYM    DATA     BYTE      ADCCFG0
      000000B9H   SFRSYM    DATA     BYTE      IP1
      00000088H.7 SFRSYM    DATA     BIT       TF1
      000000A8H.5 SFRSYM    DATA     BIT       ET2
      000000ACH   SFRSYM    DATA     BYTE      ADCCFG1
      00000098H.2 SFRSYM    DATA     BIT       RB8
      000000C8H.7 SFRSYM    DATA     BIT       TF2
      0000008CH   SFRSYM    DATA     BYTE      TH0
      0000008DH   SFRSYM    DATA     BYTE      TH1
      00000098H.3 SFRSYM    DATA     BIT       TB8
      000000CDH   SFRSYM    DATA     BYTE      TH2
      000000D0H   SFRSYM    DATA     BIT       P
      00000098H.7 SFRSYM    DATA     BIT       SM0
      0000008AH   SFRSYM    DATA     BYTE      TL0
      00000098H.6 SFRSYM    DATA     BIT       SM1
      000000CFH   SFRSYM    DATA     BYTE      WDTCON
      0000008BH   SFRSYM    DATA     BYTE      TL1
      00000098H.5 SFRSYM    DATA     BIT       SM2
      000000CCH   SFRSYM    DATA     BYTE      TL2
      000000D0H.3 SFRSYM    DATA     BIT       RS0
      00000088H.4 SFRSYM    DATA     BIT       TR0
      000000D0H.4 SFRSYM    DATA     BIT       RS1
      000000D2H   SFRSYM    DATA     BYTE      PWMCON
      00000088H.6 SFRSYM    DATA     BIT       TR1
      000000B8H.4 SFRSYM    DATA     BIT       IPUART
      000000C8H.2 SFRSYM    DATA     BIT       TR2
      000000D3H   SFRSYM    DATA     BYTE      PWMPRD
      00000083H   SFRSYM    DATA     BYTE      DPH
      00000082H   SFRSYM    DATA     BYTE      DPL
      000000A8H   SFRSYM    DATA     BIT       EINT0
      0000009AH   SFRSYM    DATA     BYTE      P0CON
      000000A8H.2 SFRSYM    DATA     BIT       EINT1
      000000B8H.6 SFRSYM    DATA     BIT       IPADC
      000000BAH   SFRSYM    DATA     BYTE      INT0F
      00000091H   SFRSYM    DATA     BYTE      P1CON
      000000C8H.3 SFRSYM    DATA     BIT       EXEN2
      000000BCH   SFRSYM    DATA     BYTE      INT1F
      000000A1H   SFRSYM    DATA     BYTE      P2CON
      000000C6H   SFRSYM    DATA     BYTE      INT2F
      00000098H.4 SFRSYM    DATA     BIT       REN
      000000D9H   SFRSYM    DATA     BYTE      P5CON
      000000AFH   SFRSYM    DATA     BYTE      ADCVH
      000000C9H   SFRSYM    DATA     BYTE      T2MOD
      000000C8H   SFRSYM    DATA     BYTE      T2CON
      000000AEH   SFRSYM    DATA     BYTE      ADCVL
      000000BBH   SFRSYM    DATA     BYTE      INT0R
      000000BDH   SFRSYM    DATA     BYTE      INT1R
      000000C7H   SFRSYM    DATA     BYTE      INT2R
      000000D0H.5 SFRSYM    DATA     BIT       F0
      000000D0H.1 SFRSYM    DATA     BIT       F1
      000000D0H   SFRSYM    DATA     BYTE      PSW
      0100150FH   SYMBOL    CODE     ---       VIBMotorTimeRun
      010014E0H   SYMBOL    CODE     ---       PATMotorTimeRun

      010015DFH   BLOCK     CODE     ---       LVL=0
      010015DFH   LINE      CODE     ---       #36
      010015DFH   LINE      CODE     ---       #37
LX51 LINKER/LOCATER V4.66.41.0                                                        03/10/2021  14:40:17  PAGE 65


      010015DFH   LINE      CODE     ---       #38
      010015E2H   LINE      CODE     ---       #41
      010015E5H   LINE      CODE     ---       #42
      010015E8H   LINE      CODE     ---       #43
      010015EBH   LINE      CODE     ---       #44
      010015EDH   LINE      CODE     ---       #45
      010015EFH   LINE      CODE     ---       #46
      010015F1H   LINE      CODE     ---       #61
      010015F4H   LINE      CODE     ---       #62
      010015F6H   LINE      CODE     ---       #63
      010015F9H   LINE      CODE     ---       #64
      010015FCH   LINE      CODE     ---       #65
      010015FEH   LINE      CODE     ---       #66
      01001600H   LINE      CODE     ---       #67
      01001602H   LINE      CODE     ---       #70
      01001604H   LINE      CODE     ---       #71
      ---         BLOCKEND  ---      ---       LVL=0

      0100128CH   BLOCK     CODE     ---       LVL=0
      0100128CH   LINE      CODE     ---       #81
      010012A9H   LINE      CODE     ---       #84
      010012ACH   LINE      CODE     ---       #85
      010012AFH   LINE      CODE     ---       #90
      010012B2H   LINE      CODE     ---       #91
      010012B5H   LINE      CODE     ---       #92
      010012B8H   LINE      CODE     ---       #93
      010012BBH   LINE      CODE     ---       #94
      010012BEH   LINE      CODE     ---       #95
      010012C1H   LINE      CODE     ---       #98
      ---         BLOCKEND  ---      ---       LVL=0

      01001365H   BLOCK     CODE     ---       LVL=0
      01001365H   LINE      CODE     ---       #107
      01001382H   LINE      CODE     ---       #111
      01001385H   LINE      CODE     ---       #112
      01001388H   LINE      CODE     ---       #114
      0100138AH   LINE      CODE     ---       #116
      ---         BLOCKEND  ---      ---       LVL=0

      010016ADH   BLOCK     CODE     ---       LVL=0
      00000006H   SYMBOL    DATA     WORD      usPara
      010016ADH   BLOCK     CODE     NEAR LAB  LVL=1
      00000004H   SYMBOL    DATA     WORD      usDelayClk
      ---         BLOCKEND  ---      ---       LVL=1
      010016ADH   LINE      CODE     ---       #126
      010016ADH   LINE      CODE     ---       #127
      010016ADH   LINE      CODE     ---       #128
      010016ADH   LINE      CODE     ---       #130
      010016B6H   LINE      CODE     ---       #131
      010016B6H   LINE      CODE     ---       #132
      010016B9H   LINE      CODE     ---       #133
      010016B9H   LINE      CODE     ---       #135
      010016C4H   LINE      CODE     ---       #136
      010016CBH   LINE      CODE     ---       #137
      ---         BLOCKEND  ---      ---       LVL=0

      01001897H   BLOCK     CODE     ---       LVL=0
      01001897H   LINE      CODE     ---       #146
      01001897H   LINE      CODE     ---       #147
      01001897H   LINE      CODE     ---       #148
      0100189AH   LINE      CODE     ---       #149
      0100189DH   LINE      CODE     ---       #150
      010018A0H   LINE      CODE     ---       #152
      ---         BLOCKEND  ---      ---       LVL=0

LX51 LINKER/LOCATER V4.66.41.0                                                        03/10/2021  14:40:17  PAGE 66


      0100186EH   BLOCK     CODE     ---       LVL=0
      0100186EH   LINE      CODE     ---       #162
      0100186EH   LINE      CODE     ---       #163
      0100186EH   LINE      CODE     ---       #164
      01001871H   LINE      CODE     ---       #165
      01001874H   LINE      CODE     ---       #167
      01001878H   LINE      CODE     ---       #169
      ---         BLOCKEND  ---      ---       LVL=0

      0100192BH   BLOCK     CODE     ---       LVL=0
      0100192BH   LINE      CODE     ---       #179
      0100192BH   LINE      CODE     ---       #180
      0100192BH   LINE      CODE     ---       #181
      0100192EH   LINE      CODE     ---       #184
      ---         BLOCKEND  ---      ---       LVL=0

      010014E0H   BLOCK     CODE     ---       LVL=0
      010014E0H   LINE      CODE     ---       #193
      010014E0H   LINE      CODE     ---       #194
      010014E0H   LINE      CODE     ---       #195
      010014E6H   LINE      CODE     ---       #196
      010014E6H   LINE      CODE     ---       #197
      010014E9H   LINE      CODE     ---       #198
      010014EAH   LINE      CODE     ---       #200
      010014EAH   LINE      CODE     ---       #201
      010014EFH   LINE      CODE     ---       #202
      010014FFH   LINE      CODE     ---       #203
      010014FFH   LINE      CODE     ---       #204
      01001501H   LINE      CODE     ---       #205
      01001502H   LINE      CODE     ---       #206
      01001508H   LINE      CODE     ---       #207
      01001508H   LINE      CODE     ---       #208
      0100150CH   LINE      CODE     ---       #209
      0100150EH   LINE      CODE     ---       #210
      0100150EH   LINE      CODE     ---       #211
      0100150EH   LINE      CODE     ---       #213
      ---         BLOCKEND  ---      ---       LVL=0

      0100150FH   BLOCK     CODE     ---       LVL=0
      0100150FH   LINE      CODE     ---       #222
      0100150FH   LINE      CODE     ---       #223
      0100150FH   LINE      CODE     ---       #225
      01001515H   LINE      CODE     ---       #226
      01001515H   LINE      CODE     ---       #227
      01001518H   LINE      CODE     ---       #228
      01001519H   LINE      CODE     ---       #230
      01001519H   LINE      CODE     ---       #231
      0100151EH   LINE      CODE     ---       #232
      0100152EH   LINE      CODE     ---       #233
      0100152EH   LINE      CODE     ---       #234
      01001530H   LINE      CODE     ---       #235
      01001531H   LINE      CODE     ---       #236
      01001537H   LINE      CODE     ---       #237
      01001537H   LINE      CODE     ---       #238
      0100153BH   LINE      CODE     ---       #239
      0100153DH   LINE      CODE     ---       #240
      0100153DH   LINE      CODE     ---       #241
      0100153DH   LINE      CODE     ---       #244
      ---         BLOCKEND  ---      ---       LVL=0

      ---         MODULE    ---      ---       DRV_UART
      00000020H.1 PUBLIC    BIT      BIT       UartReceiveFlag
      00000020H.0 PUBLIC    BIT      BIT       UartSendFlag
      01001922H   PUBLIC    CODE     ---       UART_Stop
      01001947H   PUBLIC    CODE     ---       UARTRxDataClear
LX51 LINKER/LOCATER V4.66.41.0                                                        03/10/2021  14:40:17  PAGE 67


      010018E1H   PUBLIC    CODE     ---       TimerUartReceive
      010017B7H   PUBLIC    CODE     ---       _TimerUartSendByte
      01001787H   PUBLIC    CODE     ---       _TimerUartSendString
      01001946H   PUBLIC    CODE     ---       UartInt
      01001945H   PUBLIC    CODE     ---       Uart0_Init
      000000FFH   SFRSYM    DATA     BYTE      OPREG
      00000080H   SFRSYM    DATA     BYTE      P0
      00000090H   SFRSYM    DATA     BYTE      P1
      000000A0H   SFRSYM    DATA     BYTE      P2
      000000A8H.4 SFRSYM    DATA     BIT       EUART
      0000008EH   SFRSYM    DATA     BYTE      TMCON
      000000D0H.6 SFRSYM    DATA     BIT       AC
      0000008FH   SFRSYM    DATA     BYTE      OTCON
      000000D8H   SFRSYM    DATA     BYTE      P5
      000000A8H.7 SFRSYM    DATA     BIT       EA
      000000C8H.1 SFRSYM    DATA     BIT       T2
      000000A8H.6 SFRSYM    DATA     BIT       EADC
      000000A8H   SFRSYM    DATA     BYTE      IE
      000000FEH   SFRSYM    DATA     BYTE      OPINX
      000000C8H   SFRSYM    DATA     BIT       CP
      000000C8H.6 SFRSYM    DATA     BIT       EXF2
      000000D5H   SFRSYM    DATA     BYTE      PWMDTY0
      000000D6H   SFRSYM    DATA     BYTE      PWMDTY1
      0000009BH   SFRSYM    DATA     BYTE      P0PH
      000000B8H   SFRSYM    DATA     BYTE      IP
      000000D7H   SFRSYM    DATA     BYTE      PWMDTY2
      00000092H   SFRSYM    DATA     BYTE      P1PH
      00000098H   SFRSYM    DATA     BIT       RI
      000000A2H   SFRSYM    DATA     BYTE      P2PH
      000000D0H.7 SFRSYM    DATA     BIT       CY
      00000098H.1 SFRSYM    DATA     BIT       TI
      000000B8H.1 SFRSYM    DATA     BIT       IPT0
      000000DAH   SFRSYM    DATA     BYTE      P5PH
      000000B8H.3 SFRSYM    DATA     BIT       IPT1
      000000B8H.5 SFRSYM    DATA     BIT       IPT2
      000000CBH   SFRSYM    DATA     BYTE      RCAP2H
      00000081H   SFRSYM    DATA     BYTE      SP
      000000D0H.2 SFRSYM    DATA     BIT       OV
      000000F4H   SFRSYM    DATA     BYTE      IAPADE
      0000009CH   SFRSYM    DATA     BYTE      P0VO
      000000CAH   SFRSYM    DATA     BYTE      RCAP2L
      000000F3H   SFRSYM    DATA     BYTE      IAPADH
      000000D4H   SFRSYM    DATA     BYTE      PWMDTYA
      000000ADH   SFRSYM    DATA     BYTE      ADCCON
      000000C8H.5 SFRSYM    DATA     BIT       RCLK
      000000F2H   SFRSYM    DATA     BYTE      IAPADL
      000000C8H.4 SFRSYM    DATA     BIT       TCLK
      00000080H   SFRSYM    DATA     BIT       P00
      00000090H   SFRSYM    DATA     BIT       P10
      00000080H.1 SFRSYM    DATA     BIT       P01
      00000099H   SFRSYM    DATA     BYTE      SBUF
      00000087H   SFRSYM    DATA     BYTE      PCON
      000000A0H   SFRSYM    DATA     BIT       P20
      00000090H.1 SFRSYM    DATA     BIT       P11
      00000080H.2 SFRSYM    DATA     BIT       P02
      000000A0H.1 SFRSYM    DATA     BIT       P21
      00000090H.2 SFRSYM    DATA     BIT       P12
      00000080H.3 SFRSYM    DATA     BIT       P03
      000000A0H.2 SFRSYM    DATA     BIT       P22
      00000090H.3 SFRSYM    DATA     BIT       P13
      00000080H.4 SFRSYM    DATA     BIT       P04
      00000098H   SFRSYM    DATA     BYTE      SCON
      000000D8H   SFRSYM    DATA     BIT       P50
      000000A0H.3 SFRSYM    DATA     BIT       P23
      00000090H.4 SFRSYM    DATA     BIT       P14
LX51 LINKER/LOCATER V4.66.41.0                                                        03/10/2021  14:40:17  PAGE 68


      00000080H.5 SFRSYM    DATA     BIT       P05
      000000F5H   SFRSYM    DATA     BYTE      IAPDAT
      00000088H   SFRSYM    DATA     BYTE      TCON
      00000089H   SFRSYM    DATA     BYTE      TMOD
      000000D8H.1 SFRSYM    DATA     BIT       P51
      000000A0H.4 SFRSYM    DATA     BIT       P24
      00000090H.5 SFRSYM    DATA     BIT       P15
      00000080H.6 SFRSYM    DATA     BIT       P06
      000000B8H   SFRSYM    DATA     BIT       IPINT0
      000000A0H.5 SFRSYM    DATA     BIT       P25
      00000090H.6 SFRSYM    DATA     BIT       P16
      00000080H.7 SFRSYM    DATA     BIT       P07
      000000B8H.2 SFRSYM    DATA     BIT       IPINT1
      000000A0H.6 SFRSYM    DATA     BIT       P26
      00000090H.7 SFRSYM    DATA     BIT       P17
      000000A0H.7 SFRSYM    DATA     BIT       P27
      000000F6H   SFRSYM    DATA     BYTE      IAPCTL
      000000A9H   SFRSYM    DATA     BYTE      IE1
      000000F0H   SFRSYM    DATA     BYTE      B
      00000097H   SFRSYM    DATA     BYTE      IOHCON
      000000F1H   SFRSYM    DATA     BYTE      IAPKEY
      000000CEH   SFRSYM    DATA     BYTE      BTMCON
      000000D1H   SFRSYM    DATA     BYTE      PWMCFG
      000000E0H   SFRSYM    DATA     BYTE      ACC
      000000A8H.1 SFRSYM    DATA     BIT       ET0
      00000088H.5 SFRSYM    DATA     BIT       TF0
      000000A8H.3 SFRSYM    DATA     BIT       ET1
      000000ABH   SFRSYM    DATA     BYTE      ADCCFG0
      000000B9H   SFRSYM    DATA     BYTE      IP1
      00000088H.7 SFRSYM    DATA     BIT       TF1
      000000A8H.5 SFRSYM    DATA     BIT       ET2
      000000ACH   SFRSYM    DATA     BYTE      ADCCFG1
      00000098H.2 SFRSYM    DATA     BIT       RB8
      000000C8H.7 SFRSYM    DATA     BIT       TF2
      0000008CH   SFRSYM    DATA     BYTE      TH0
      0000008DH   SFRSYM    DATA     BYTE      TH1
      00000098H.3 SFRSYM    DATA     BIT       TB8
      000000CDH   SFRSYM    DATA     BYTE      TH2
      000000D0H   SFRSYM    DATA     BIT       P
      00000098H.7 SFRSYM    DATA     BIT       SM0
      0000008AH   SFRSYM    DATA     BYTE      TL0
      00000098H.6 SFRSYM    DATA     BIT       SM1
      000000CFH   SFRSYM    DATA     BYTE      WDTCON
      0000008BH   SFRSYM    DATA     BYTE      TL1
      00000098H.5 SFRSYM    DATA     BIT       SM2
      000000CCH   SFRSYM    DATA     BYTE      TL2
      000000D0H.3 SFRSYM    DATA     BIT       RS0
      00000088H.4 SFRSYM    DATA     BIT       TR0
      000000D0H.4 SFRSYM    DATA     BIT       RS1
      000000D2H   SFRSYM    DATA     BYTE      PWMCON
      00000088H.6 SFRSYM    DATA     BIT       TR1
      000000B8H.4 SFRSYM    DATA     BIT       IPUART
      000000C8H.2 SFRSYM    DATA     BIT       TR2
      000000D3H   SFRSYM    DATA     BYTE      PWMPRD
      00000083H   SFRSYM    DATA     BYTE      DPH
      00000082H   SFRSYM    DATA     BYTE      DPL
      000000A8H   SFRSYM    DATA     BIT       EINT0
      0000009AH   SFRSYM    DATA     BYTE      P0CON
      000000A8H.2 SFRSYM    DATA     BIT       EINT1
      000000B8H.6 SFRSYM    DATA     BIT       IPADC
      000000BAH   SFRSYM    DATA     BYTE      INT0F
      00000091H   SFRSYM    DATA     BYTE      P1CON
      000000C8H.3 SFRSYM    DATA     BIT       EXEN2
      000000BCH   SFRSYM    DATA     BYTE      INT1F
      000000A1H   SFRSYM    DATA     BYTE      P2CON
LX51 LINKER/LOCATER V4.66.41.0                                                        03/10/2021  14:40:17  PAGE 69


      000000C6H   SFRSYM    DATA     BYTE      INT2F
      00000098H.4 SFRSYM    DATA     BIT       REN
      000000D9H   SFRSYM    DATA     BYTE      P5CON
      000000AFH   SFRSYM    DATA     BYTE      ADCVH
      000000C9H   SFRSYM    DATA     BYTE      T2MOD
      000000C8H   SFRSYM    DATA     BYTE      T2CON
      000000AEH   SFRSYM    DATA     BYTE      ADCVL
      000000BBH   SFRSYM    DATA     BYTE      INT0R
      000000BDH   SFRSYM    DATA     BYTE      INT1R
      000000C7H   SFRSYM    DATA     BYTE      INT2R
      000000D0H.5 SFRSYM    DATA     BIT       F0
      000000D0H.1 SFRSYM    DATA     BIT       F1
      000000D0H   SFRSYM    DATA     BYTE      PSW

      01001945H   BLOCK     CODE     ---       LVL=0
      01001945H   LINE      CODE     ---       #40
      01001945H   LINE      CODE     ---       #41
      01001945H   LINE      CODE     ---       #55
      ---         BLOCKEND  ---      ---       LVL=0

      01001946H   BLOCK     CODE     ---       LVL=0
      01001946H   LINE      CODE     ---       #83
      01001946H   LINE      CODE     ---       #102
      ---         BLOCKEND  ---      ---       LVL=0

      01001787H   BLOCK     CODE     ---       LVL=0
      00000001H   SYMBOL    DATA     ---       pucTxString
      01001787H   BLOCK     CODE     NEAR LAB  LVL=1
      00000001H   SYMBOL    DATA     ---       pucTemp
      ---         BLOCKEND  ---      ---       LVL=1
      01001787H   LINE      CODE     ---       #112
      01001787H   LINE      CODE     ---       #113
      01001787H   LINE      CODE     ---       #114
      01001787H   LINE      CODE     ---       #116
      0100178BH   LINE      CODE     ---       #117
      0100178BH   LINE      CODE     ---       #119
      0100178BH   LINE      CODE     ---       #121
      01001790H   LINE      CODE     ---       #122
      01001790H   LINE      CODE     ---       #124
      01001792H   LINE      CODE     ---       #125
      01001795H   LINE      CODE     ---       #126
      01001797H   LINE      CODE     ---       #127
      0100179EH   LINE      CODE     ---       #128
      010017A0H   LINE      CODE     ---       #130
      ---         BLOCKEND  ---      ---       LVL=0

      010017B7H   BLOCK     CODE     ---       LVL=0
      00000007H   SYMBOL    DATA     BYTE      ucParameter
      010017B7H   LINE      CODE     ---       #140
      010017B7H   LINE      CODE     ---       #141
      010017B7H   LINE      CODE     ---       #142
      010017BBH   LINE      CODE     ---       #143
      010017BBH   LINE      CODE     ---       #145
      010017BEH   LINE      CODE     ---       #146
      010017C1H   LINE      CODE     ---       #147
      010017C3H   LINE      CODE     ---       #148
      010017C4H   LINE      CODE     ---       #150
      010017C4H   LINE      CODE     ---       #151
      010017C6H   LINE      CODE     ---       #152
      010017C9H   LINE      CODE     ---       #153
      010017CBH   LINE      CODE     ---       #154
      010017CBH   LINE      CODE     ---       #156
      ---         BLOCKEND  ---      ---       LVL=0

      010018E1H   BLOCK     CODE     ---       LVL=0
LX51 LINKER/LOCATER V4.66.41.0                                                        03/10/2021  14:40:17  PAGE 70


      010018E1H   LINE      CODE     ---       #166
      010018E1H   LINE      CODE     ---       #167
      010018E1H   LINE      CODE     ---       #176
      010018E7H   LINE      CODE     ---       #177
      ---         BLOCKEND  ---      ---       LVL=0

      01001947H   BLOCK     CODE     ---       LVL=0
      01001947H   LINE      CODE     ---       #209
      01001947H   LINE      CODE     ---       #210
      01001947H   LINE      CODE     ---       #220
      ---         BLOCKEND  ---      ---       LVL=0

      01001922H   BLOCK     CODE     ---       LVL=0
      01001922H   LINE      CODE     ---       #230
      01001922H   LINE      CODE     ---       #231
      01001922H   LINE      CODE     ---       #232
      01001924H   LINE      CODE     ---       #233
      01001926H   LINE      CODE     ---       #236
      ---         BLOCKEND  ---      ---       LVL=0

      ---         MODULE    ---      ---       ?C?FPADD
      01000107H   PUBLIC    CODE     ---       ?C?FPADD
      01000103H   PUBLIC    CODE     ---       ?C?FPSUB

      ---         MODULE    ---      ---       ?C?FPDIV
      010001FBH   PUBLIC    CODE     ---       ?C?FPDIV

      ---         MODULE    ---      ---       ?C?FCAST
      010002A2H   PUBLIC    CODE     ---       ?C?FCASTC
      0100029DH   PUBLIC    CODE     ---       ?C?FCASTI
      01000298H   PUBLIC    CODE     ---       ?C?FCASTL

      ---         MODULE    ---      ---       ?C?CASTF
      010002D6H   PUBLIC    CODE     ---       ?C?CASTF

      ---         MODULE    ---      ---       ?C?FPGETOPN
      0100030DH   PUBLIC    CODE     ---       ?C?FPGETOPN2
      01000342H   PUBLIC    CODE     ---       ?C?FPNANRESULT
      0100034CH   PUBLIC    CODE     ---       ?C?FPOVERFLOW
      01000324H   PUBLIC    CODE     ---       ?C?FPRESULT
      01000338H   PUBLIC    CODE     ---       ?C?FPRESULT2
      01000349H   PUBLIC    CODE     ---       ?C?FPUNDERFLOW

      ---         MODULE    ---      ---       ?C_INIT
      01000FE5H   PUBLIC    CODE     ---       ?C_START

      ---         MODULE    ---      ---       ?C?CLDPTR
      01000357H   PUBLIC    CODE     ---       ?C?CLDPTR

      ---         MODULE    ---      ---       ?C?IMUL
      01000370H   PUBLIC    CODE     ---       ?C?IMUL

      ---         MODULE    ---      ---       ?C?UIDIV
      01000382H   PUBLIC    CODE     ---       ?C?UIDIV

      ---         MODULE    ---      ---       ?C?LADD
      010003D7H   PUBLIC    CODE     ---       ?C?LADD

      ---         MODULE    ---      ---       ?C?LSUB
      010003E4H   PUBLIC    CODE     ---       ?C?LSUB

      ---         MODULE    ---      ---       ?C?LMUL
      010003F2H   PUBLIC    CODE     ---       ?C?LMUL

      ---         MODULE    ---      ---       ?C?ULDIV
LX51 LINKER/LOCATER V4.66.41.0                                                        03/10/2021  14:40:17  PAGE 71


      0100047DH   PUBLIC    CODE     ---       ?C?ULDIV

      ---         MODULE    ---      ---       ?C?LNEG
      0100050FH   PUBLIC    CODE     ---       ?C?LNEG

      ---         MODULE    ---      ---       ?C?SLCMP
      0100051DH   PUBLIC    CODE     ---       ?C?SLCMP

      ---         MODULE    ---      ---       ?C?ULCMP
      01000533H   PUBLIC    CODE     ---       ?C?ULCMP

      ---         MODULE    ---      ---       ?C?LLDPDATA
      01000544H   PUBLIC    CODE     ---       ?C?LLDPDATA

      ---         MODULE    ---      ---       ?C?LLDCODE
      01000550H   PUBLIC    CODE     ---       ?C?LLDCODE

      ---         MODULE    ---      ---       ?C?LLDPDATA0
      01000560H   PUBLIC    CODE     ---       ?C?LLDPDATA0

      ---         MODULE    ---      ---       ?C?LSTPDATA
      0100056DH   PUBLIC    CODE     ---       ?C?LSTPDATA

      ---         MODULE    ---      ---       ?C?LSTKPDATA
      01000579H   PUBLIC    CODE     ---       ?C?LSTKPDATA

      ---         MODULE    ---      ---       ?C?OFFXADD
      01000592H   PUBLIC    CODE     ---       ?C?OFFXADD

      ---         MODULE    ---      ---       ?C?CCASE
      0100059EH   PUBLIC    CODE     ---       ?C?CCASE



*** WARNING L57: UNCALLED FUNCTION, IGNORED FOR OVERLAY PROCESS
    NAME:    UART0_INIT/DRV_UART

*** WARNING L57: UNCALLED FUNCTION, IGNORED FOR OVERLAY PROCESS
    NAME:    _TIMERUARTSENDSTRING/DRV_UART

*** WARNING L57: UNCALLED FUNCTION, IGNORED FOR OVERLAY PROCESS
    NAME:    _TIMERUARTSENDBYTE/DRV_UART

*** WARNING L57: UNCALLED FUNCTION, IGNORED FOR OVERLAY PROCESS
    NAME:    TIMERUARTRECEIVE/DRV_UART

*** WARNING L57: UNCALLED FUNCTION, IGNORED FOR OVERLAY PROCESS
    NAME:    UARTRXDATACLEAR/DRV_UART

Program Size: data=9.3 xdata=156 const=75 code=6243
LX51 RUN COMPLETE.  5 WARNING(S),  0 ERROR(S)
